                                      1 ;--------------------------------------------------------
                                      2 ; File Created by SDCC : free open source ANSI-C Compiler
                                      3 ; Version 3.5.0 #9253 (Apr  3 2018) (Linux)
                                      4 ; This file was generated Tue Feb 11 21:09:31 2025
                                      5 ;--------------------------------------------------------
                                      6 	.module one_wire
                                      7 	.optsdcc -mstm8
                                      8 	
                                      9 ;--------------------------------------------------------
                                     10 ; Public variables in this module
                                     11 ;--------------------------------------------------------
                                     12 	.globl _delay_us
                                     13 	.globl _OneWireHigh
                                     14 	.globl _OneWireRelease
                                     15 	.globl _OneWireRead
                                     16 	.globl _OneWireReset
                                     17 	.globl _OneWireWriteBit
                                     18 	.globl _OneWireReadBit
                                     19 	.globl _OneWireWriteByte
                                     20 	.globl _OneWireReadByte
                                     21 ;--------------------------------------------------------
                                     22 ; ram data
                                     23 ;--------------------------------------------------------
                                     24 	.area DATA
                                     25 ;--------------------------------------------------------
                                     26 ; ram data
                                     27 ;--------------------------------------------------------
                                     28 	.area INITIALIZED
                                     29 ;--------------------------------------------------------
                                     30 ; absolute external ram data
                                     31 ;--------------------------------------------------------
                                     32 	.area DABS (ABS)
                                     33 ;--------------------------------------------------------
                                     34 ; global & static initialisations
                                     35 ;--------------------------------------------------------
                                     36 	.area HOME
                                     37 	.area GSINIT
                                     38 	.area GSFINAL
                                     39 	.area GSINIT
                                     40 ;--------------------------------------------------------
                                     41 ; Home
                                     42 ;--------------------------------------------------------
                                     43 	.area HOME
                                     44 	.area HOME
                                     45 ;--------------------------------------------------------
                                     46 ; code
                                     47 ;--------------------------------------------------------
                                     48 	.area CODE
                                     49 ;	lib/src/one-wire.c: 12: void OneWireHigh(){
                                     50 ;	-----------------------------------------
                                     51 ;	 function OneWireHigh
                                     52 ;	-----------------------------------------
      000000                         53 _OneWireHigh:
                                     54 ;	lib/src/one-wire.c: 14: OW_OUT();
      000000 AE 50 0C         [ 2]   55 	ldw	x, #0x500c
      000003 F6               [ 1]   56 	ld	a, (x)
      000004 AA 10            [ 1]   57 	or	a, #0x10
      000006 F7               [ 1]   58 	ld	(x), a
                                     59 ;	lib/src/one-wire.c: 15: OW_PIN_OPEN_DRAIN();
      000007 AE 50 0D         [ 2]   60 	ldw	x, #0x500d
      00000A F6               [ 1]   61 	ld	a, (x)
      00000B A4 EF            [ 1]   62 	and	a, #0xef
      00000D F7               [ 1]   63 	ld	(x), a
                                     64 ;	lib/src/one-wire.c: 17: OW_HIGH();
      00000E AE 50 0A         [ 2]   65 	ldw	x, #0x500a
      000011 F6               [ 1]   66 	ld	a, (x)
      000012 AA 10            [ 1]   67 	or	a, #0x10
      000014 F7               [ 1]   68 	ld	(x), a
      000015 81               [ 4]   69 	ret
                                     70 ;	lib/src/one-wire.c: 20: void OneWireRelease(){
                                     71 ;	-----------------------------------------
                                     72 ;	 function OneWireRelease
                                     73 ;	-----------------------------------------
      000016                         74 _OneWireRelease:
                                     75 ;	lib/src/one-wire.c: 22: OW_OUT();
      000016 AE 50 0C         [ 2]   76 	ldw	x, #0x500c
      000019 F6               [ 1]   77 	ld	a, (x)
      00001A AA 10            [ 1]   78 	or	a, #0x10
      00001C F7               [ 1]   79 	ld	(x), a
                                     80 ;	lib/src/one-wire.c: 23: OW_PIN_OPEN_DRAIN();
      00001D AE 50 0D         [ 2]   81 	ldw	x, #0x500d
      000020 F6               [ 1]   82 	ld	a, (x)
      000021 A4 EF            [ 1]   83 	and	a, #0xef
      000023 F7               [ 1]   84 	ld	(x), a
                                     85 ;	lib/src/one-wire.c: 25: OW_LOW();
      000024 AE 50 0A         [ 2]   86 	ldw	x, #0x500a
      000027 F6               [ 1]   87 	ld	a, (x)
      000028 A4 EF            [ 1]   88 	and	a, #0xef
      00002A F7               [ 1]   89 	ld	(x), a
      00002B 81               [ 4]   90 	ret
                                     91 ;	lib/src/one-wire.c: 28: unsigned char OneWireRead(){
                                     92 ;	-----------------------------------------
                                     93 ;	 function OneWireRead
                                     94 ;	-----------------------------------------
      00002C                         95 _OneWireRead:
                                     96 ;	lib/src/one-wire.c: 29: return OW_PIN_VALUE();
      00002C AE 50 0B         [ 2]   97 	ldw	x, #0x500b
      00002F F6               [ 1]   98 	ld	a, (x)
      000030 A4 10            [ 1]   99 	and	a, #0x10
      000032 81               [ 4]  100 	ret
                                    101 ;	lib/src/one-wire.c: 32: unsigned int OneWireReset(){
                                    102 ;	-----------------------------------------
                                    103 ;	 function OneWireReset
                                    104 ;	-----------------------------------------
      000033                        105 _OneWireReset:
                                    106 ;	lib/src/one-wire.c: 35: OneWireRelease();
      000033 CDr00r16         [ 4]  107 	call	_OneWireRelease
                                    108 ;	lib/src/one-wire.c: 36: delay_us(479); // 480uS Delay
      000036 4B DF            [ 1]  109 	push	#0xdf
      000038 4B 01            [ 1]  110 	push	#0x01
      00003A CDr00r00         [ 4]  111 	call	_delay_us
      00003D 5B 02            [ 2]  112 	addw	sp, #2
                                    113 ;	lib/src/one-wire.c: 37: OneWireHigh();
      00003F CDr00r00         [ 4]  114 	call	_OneWireHigh
                                    115 ;	lib/src/one-wire.c: 38: delay_us(69);  // wait 70 uS before reading
      000042 4B 45            [ 1]  116 	push	#0x45
      000044 4B 00            [ 1]  117 	push	#0x00
      000046 CDr00r00         [ 4]  118 	call	_delay_us
      000049 5B 02            [ 2]  119 	addw	sp, #2
                                    120 ;	lib/src/one-wire.c: 40: OW = OneWireRead(); // check for OneWire
      00004B CDr00r2C         [ 4]  121 	call	_OneWireRead
      00004E 5F               [ 1]  122 	clrw	x
      00004F 97               [ 1]  123 	ld	xl, a
                                    124 ;	lib/src/one-wire.c: 41: delay_us(479);      // 480uS delay
      000050 89               [ 2]  125 	pushw	x
      000051 4B DF            [ 1]  126 	push	#0xdf
      000053 4B 01            [ 1]  127 	push	#0x01
      000055 CDr00r00         [ 4]  128 	call	_delay_us
      000058 5B 02            [ 2]  129 	addw	sp, #2
      00005A CDr00r00         [ 4]  130 	call	_OneWireHigh
      00005D 85               [ 2]  131 	popw	x
                                    132 ;	lib/src/one-wire.c: 43: return OW;
      00005E 81               [ 4]  133 	ret
                                    134 ;	lib/src/one-wire.c: 47: void OneWireWriteBit(unsigned char b){
                                    135 ;	-----------------------------------------
                                    136 ;	 function OneWireWriteBit
                                    137 ;	-----------------------------------------
      00005F                        138 _OneWireWriteBit:
                                    139 ;	lib/src/one-wire.c: 48: if(b){
      00005F 0D 03            [ 1]  140 	tnz	(0x03, sp)
      000061 27 1A            [ 1]  141 	jreq	00102$
                                    142 ;	lib/src/one-wire.c: 49: OneWireRelease();
      000063 CDr00r16         [ 4]  143 	call	_OneWireRelease
                                    144 ;	lib/src/one-wire.c: 50: delay_us(5);  // wait 6uS
      000066 4B 05            [ 1]  145 	push	#0x05
      000068 4B 00            [ 1]  146 	push	#0x00
      00006A CDr00r00         [ 4]  147 	call	_delay_us
      00006D 5B 02            [ 2]  148 	addw	sp, #2
                                    149 ;	lib/src/one-wire.c: 51: OneWireHigh();
      00006F CDr00r00         [ 4]  150 	call	_OneWireHigh
                                    151 ;	lib/src/one-wire.c: 52: delay_us(63); // wait 64uS
      000072 4B 3F            [ 1]  152 	push	#0x3f
      000074 4B 00            [ 1]  153 	push	#0x00
      000076 CDr00r00         [ 4]  154 	call	_delay_us
      000079 5B 02            [ 2]  155 	addw	sp, #2
      00007B 20 18            [ 2]  156 	jra	00104$
      00007D                        157 00102$:
                                    158 ;	lib/src/one-wire.c: 55: OneWireRelease();
      00007D CDr00r16         [ 4]  159 	call	_OneWireRelease
                                    160 ;	lib/src/one-wire.c: 56: delay_us(59); // wait 60uS
      000080 4B 3B            [ 1]  161 	push	#0x3b
      000082 4B 00            [ 1]  162 	push	#0x00
      000084 CDr00r00         [ 4]  163 	call	_delay_us
      000087 5B 02            [ 2]  164 	addw	sp, #2
                                    165 ;	lib/src/one-wire.c: 57: OneWireHigh();
      000089 CDr00r00         [ 4]  166 	call	_OneWireHigh
                                    167 ;	lib/src/one-wire.c: 58: delay_us(9); // wait 10uS
      00008C 4B 09            [ 1]  168 	push	#0x09
      00008E 4B 00            [ 1]  169 	push	#0x00
      000090 CDr00r00         [ 4]  170 	call	_delay_us
      000093 5B 02            [ 2]  171 	addw	sp, #2
      000095                        172 00104$:
      000095 81               [ 4]  173 	ret
                                    174 ;	lib/src/one-wire.c: 64: unsigned char OneWireReadBit() {
                                    175 ;	-----------------------------------------
                                    176 ;	 function OneWireReadBit
                                    177 ;	-----------------------------------------
      000096                        178 _OneWireReadBit:
                                    179 ;	lib/src/one-wire.c: 67: OneWireRelease();
      000096 CDr00r16         [ 4]  180 	call	_OneWireRelease
                                    181 ;	lib/src/one-wire.c: 68: delay_us(5); // wait 6uS
      000099 4B 05            [ 1]  182 	push	#0x05
      00009B 4B 00            [ 1]  183 	push	#0x00
      00009D CDr00r00         [ 4]  184 	call	_delay_us
      0000A0 5B 02            [ 2]  185 	addw	sp, #2
                                    186 ;	lib/src/one-wire.c: 69: OneWireHigh();
      0000A2 CDr00r00         [ 4]  187 	call	_OneWireHigh
                                    188 ;	lib/src/one-wire.c: 70: delay_us(8); // wait 9uS
      0000A5 4B 08            [ 1]  189 	push	#0x08
      0000A7 4B 00            [ 1]  190 	push	#0x00
      0000A9 CDr00r00         [ 4]  191 	call	_delay_us
      0000AC 5B 02            [ 2]  192 	addw	sp, #2
                                    193 ;	lib/src/one-wire.c: 71: out = OneWireRead();
      0000AE CDr00r2C         [ 4]  194 	call	_OneWireRead
                                    195 ;	lib/src/one-wire.c: 73: if(out) {
      0000B1 4D               [ 1]  196 	tnz	a
      0000B2 27 03            [ 1]  197 	jreq	00102$
                                    198 ;	lib/src/one-wire.c: 74: out = 0x01;
      0000B4 A6 01            [ 1]  199 	ld	a, #0x01
                                    200 ;	lib/src/one-wire.c: 78: out = 0x00;
      0000B6 21                     201 	.byte 0x21
      0000B7                        202 00102$:
      0000B7 4F               [ 1]  203 	clr	a
      0000B8                        204 00103$:
                                    205 ;	lib/src/one-wire.c: 82: delay_us(54); // wait 55uS
      0000B8 88               [ 1]  206 	push	a
      0000B9 4B 36            [ 1]  207 	push	#0x36
      0000BB 4B 00            [ 1]  208 	push	#0x00
      0000BD CDr00r00         [ 4]  209 	call	_delay_us
      0000C0 5B 02            [ 2]  210 	addw	sp, #2
      0000C2 84               [ 1]  211 	pop	a
                                    212 ;	lib/src/one-wire.c: 83: return out;
      0000C3 81               [ 4]  213 	ret
                                    214 ;	lib/src/one-wire.c: 86: void OneWireWriteByte(unsigned char b) {
                                    215 ;	-----------------------------------------
                                    216 ;	 function OneWireWriteByte
                                    217 ;	-----------------------------------------
      0000C4                        218 _OneWireWriteByte:
                                    219 ;	lib/src/one-wire.c: 89: for(i=0; i < 8; i++) {
      0000C4 5F               [ 1]  220 	clrw	x
      0000C5                        221 00102$:
                                    222 ;	lib/src/one-wire.c: 90: OneWireWriteBit(b & 0x01); // send LS bit first
      0000C5 7B 03            [ 1]  223 	ld	a, (0x03, sp)
      0000C7 A4 01            [ 1]  224 	and	a, #0x01
      0000C9 89               [ 2]  225 	pushw	x
      0000CA 88               [ 1]  226 	push	a
      0000CB CDr00r5F         [ 4]  227 	call	_OneWireWriteBit
      0000CE 84               [ 1]  228 	pop	a
      0000CF 85               [ 2]  229 	popw	x
                                    230 ;	lib/src/one-wire.c: 91: b = b >> 1;
      0000D0 7B 03            [ 1]  231 	ld	a, (0x03, sp)
      0000D2 44               [ 1]  232 	srl	a
      0000D3 6B 03            [ 1]  233 	ld	(0x03, sp), a
                                    234 ;	lib/src/one-wire.c: 89: for(i=0; i < 8; i++) {
      0000D5 5C               [ 2]  235 	incw	x
      0000D6 A3 00 08         [ 2]  236 	cpw	x, #0x0008
      0000D9 2F EA            [ 1]  237 	jrslt	00102$
      0000DB 81               [ 4]  238 	ret
                                    239 ;	lib/src/one-wire.c: 95: unsigned char OneWireReadByte(void){
                                    240 ;	-----------------------------------------
                                    241 ;	 function OneWireReadByte
                                    242 ;	-----------------------------------------
      0000DC                        243 _OneWireReadByte:
      0000DC 52 02            [ 2]  244 	sub	sp, #2
                                    245 ;	lib/src/one-wire.c: 99: out = 0;
      0000DE 4F               [ 1]  246 	clr	a
                                    247 ;	lib/src/one-wire.c: 100: for(i = 0; i < 8; i++){       // read in LS bit first
      0000DF AE 00 08         [ 2]  248 	ldw	x, #0x0008
      0000E2 1F 01            [ 2]  249 	ldw	(0x01, sp), x
      0000E4                        250 00106$:
                                    251 ;	lib/src/one-wire.c: 101: out = out >> 1;             // get out ready for next bit
      0000E4 44               [ 1]  252 	srl	a
                                    253 ;	lib/src/one-wire.c: 102: if(OneWireReadBit() & 0x01) // if its a one
      0000E5 88               [ 1]  254 	push	a
      0000E6 CDr00r96         [ 4]  255 	call	_OneWireReadBit
      0000E9 97               [ 1]  256 	ld	xl, a
      0000EA 84               [ 1]  257 	pop	a
      0000EB 54               [ 2]  258 	srlw	x
      0000EC 24 02            [ 1]  259 	jrnc	00102$
                                    260 ;	lib/src/one-wire.c: 103: out = out | 0x80;         // place a 1
      0000EE AA 80            [ 1]  261 	or	a, #0x80
      0000F0                        262 00102$:
      0000F0 1E 01            [ 2]  263 	ldw	x, (0x01, sp)
      0000F2 5A               [ 2]  264 	decw	x
      0000F3 1F 01            [ 2]  265 	ldw	(0x01, sp), x
                                    266 ;	lib/src/one-wire.c: 100: for(i = 0; i < 8; i++){       // read in LS bit first
      0000F5 5D               [ 2]  267 	tnzw	x
      0000F6 26 EC            [ 1]  268 	jrne	00106$
                                    269 ;	lib/src/one-wire.c: 105: return out;
      0000F8 5B 02            [ 2]  270 	addw	sp, #2
      0000FA 81               [ 4]  271 	ret
                                    272 	.area CODE
                                    273 	.area INITIALIZER
                                    274 	.area CABS (ABS)
