                                      1 ;--------------------------------------------------------
                                      2 ; File Created by SDCC : free open source ISO C Compiler 
                                      3 ; Version 4.3.0 #14184 (MINGW64)
                                      4 ;--------------------------------------------------------
                                      5 	.module stm8s_mylib
                                      6 	.optsdcc -mstm8
                                      7 	
                                      8 ;--------------------------------------------------------
                                      9 ; Public variables in this module
                                     10 ;--------------------------------------------------------
                                     11 	.globl _clock_icon
                                     12 	.globl _station_icon
                                     13 	.globl _rssi
                                     14 	.globl _levelBAT_Tb
                                     15 	.globl _levelBAT_full
                                     16 	.globl _mixigamingLogo
                                     17 	.globl _lacoVietNam
                                     18 	.globl _Tim4_config
                                     19 	.globl _configADC
                                     20 	.globl _delay_us
                                     21 	.globl _delay_ms
                                     22 	.globl _BEEP_config
                                     23 	.globl _BEEP_Cmd
                                     24 	.globl _i2c_init
                                     25 	.globl _i2c_start
                                     26 	.globl _i2c_stop
                                     27 	.globl _i2c_write
                                     28 	.globl _i2c_read
                                     29 	.globl _data_write
                                     30 	.globl _data_read
                                     31 	.globl _decimal_to_bcd
                                     32 	.globl _writeTime
                                     33 	.globl _writeDay
                                     34 	.globl _Write_EEPROM
                                     35 	.globl _Read_EEPROM
                                     36 	.globl _SD1106_sendCom
                                     37 	.globl _SD1106_sendInitCom
                                     38 	.globl _SD1106_clear
                                     39 	.globl _SD1106_CUS_PRINT
                                     40 	.globl _print_levelBAT
                                     41 	.globl _print_rssi
                                     42 	.globl _station_chanel
                                     43 	.globl _clock_icon_ds
                                     44 	.globl _SD1106_setContranst
                                     45 	.globl _SD1106_resetDis
                                     46 	.globl _SD1106_flipScreen
                                     47 	.globl _SD1106_printP
                                     48 	.globl _SD1106_print_one_num
                                     49 	.globl _SD1106_printNum
                                     50 	.globl _SD1106_printBigNum
                                     51 	.globl _SD1106_printBigPoint
                                     52 	.globl _SD1106_printBigLine
                                     53 ;--------------------------------------------------------
                                     54 ; ram data
                                     55 ;--------------------------------------------------------
                                     56 	.area DATA
                                     57 ;--------------------------------------------------------
                                     58 ; ram data
                                     59 ;--------------------------------------------------------
                                     60 	.area INITIALIZED
                                     61 ;--------------------------------------------------------
                                     62 ; absolute external ram data
                                     63 ;--------------------------------------------------------
                                     64 	.area DABS (ABS)
                                     65 
                                     66 ; default segment ordering for linker
                                     67 	.area HOME
                                     68 	.area GSINIT
                                     69 	.area GSFINAL
                                     70 	.area CONST
                                     71 	.area INITIALIZER
                                     72 	.area CODE
                                     73 
                                     74 ;--------------------------------------------------------
                                     75 ; global & static initialisations
                                     76 ;--------------------------------------------------------
                                     77 	.area HOME
                                     78 	.area GSINIT
                                     79 	.area GSFINAL
                                     80 	.area GSINIT
                                     81 ;--------------------------------------------------------
                                     82 ; Home
                                     83 ;--------------------------------------------------------
                                     84 	.area HOME
                                     85 	.area HOME
                                     86 ;--------------------------------------------------------
                                     87 ; code
                                     88 ;--------------------------------------------------------
                                     89 	.area CODE
                                     90 ;	lib/src/stm8s_mylib.c: 207: void Tim4_config(void){
                                     91 ;	-----------------------------------------
                                     92 ;	 function Tim4_config
                                     93 ;	-----------------------------------------
      000000                         94 _Tim4_config:
                                     95 ;	lib/src/stm8s_mylib.c: 208: TIM4->PSCR = (uint8_t)TIM4_PRESCALER_128;
      000000 35 07 53 47      [ 1]   96 	mov	0x5347+0, #0x07
                                     97 ;	lib/src/stm8s_mylib.c: 209: TIM4->ARR = (uint8_t)125 - 1;
      000004 35 7C 53 48      [ 1]   98 	mov	0x5348+0, #0x7c
                                     99 ;	lib/src/stm8s_mylib.c: 212: TIM4->IER |= (uint8_t)TIM4_IT_UPDATE;
      000008 72 10 53 43      [ 1]  100 	bset	0x5343, #0
                                    101 ;	lib/src/stm8s_mylib.c: 215: TIM4->SR1 = (uint8_t)(~TIM4_FLAG_UPDATE);
      00000C 35 FE 53 44      [ 1]  102 	mov	0x5344+0, #0xfe
                                    103 ;	lib/src/stm8s_mylib.c: 218: TIM4->CR1 |= TIM4_CR1_CEN;
      000010 C6 53 40         [ 1]  104 	ld	a, 0x5340
      000013 AA 01            [ 1]  105 	or	a, #0x01
      000015 C7 53 40         [ 1]  106 	ld	0x5340, a
                                    107 ;	lib/src/stm8s_mylib.c: 220: enableInterrupts(); 
      000018 9A               [ 1]  108 	rim
                                    109 ;	lib/src/stm8s_mylib.c: 221: }
      000019 81               [ 4]  110 	ret
                                    111 ;	lib/src/stm8s_mylib.c: 222: void configADC(void){
                                    112 ;	-----------------------------------------
                                    113 ;	 function configADC
                                    114 ;	-----------------------------------------
      00001A                        115 _configADC:
                                    116 ;	lib/src/stm8s_mylib.c: 223: ADC1->CSR  = ADC1_CSR_RESET_VALUE;
      00001A 35 00 54 00      [ 1]  117 	mov	0x5400+0, #0x00
                                    118 ;	lib/src/stm8s_mylib.c: 224: ADC1->CR1  = ADC1_CR1_RESET_VALUE;
      00001E 35 00 54 01      [ 1]  119 	mov	0x5401+0, #0x00
                                    120 ;	lib/src/stm8s_mylib.c: 225: ADC1->CR2  = ADC1_CR2_RESET_VALUE;
      000022 35 00 54 02      [ 1]  121 	mov	0x5402+0, #0x00
                                    122 ;	lib/src/stm8s_mylib.c: 226: ADC1->CR3  = ADC1_CR3_RESET_VALUE;
      000026 35 00 54 03      [ 1]  123 	mov	0x5403+0, #0x00
                                    124 ;	lib/src/stm8s_mylib.c: 227: ADC1->TDRH = ADC1_TDRH_RESET_VALUE;
      00002A 35 00 54 06      [ 1]  125 	mov	0x5406+0, #0x00
                                    126 ;	lib/src/stm8s_mylib.c: 228: ADC1->TDRL = ADC1_TDRL_RESET_VALUE;
      00002E 35 00 54 07      [ 1]  127 	mov	0x5407+0, #0x00
                                    128 ;	lib/src/stm8s_mylib.c: 229: ADC1->HTRH = ADC1_HTRH_RESET_VALUE;
      000032 35 FF 54 08      [ 1]  129 	mov	0x5408+0, #0xff
                                    130 ;	lib/src/stm8s_mylib.c: 230: ADC1->HTRL = ADC1_HTRL_RESET_VALUE;
      000036 35 03 54 09      [ 1]  131 	mov	0x5409+0, #0x03
                                    132 ;	lib/src/stm8s_mylib.c: 231: ADC1->LTRH = ADC1_LTRH_RESET_VALUE;
      00003A 35 00 54 0A      [ 1]  133 	mov	0x540a+0, #0x00
                                    134 ;	lib/src/stm8s_mylib.c: 232: ADC1->LTRL = ADC1_LTRL_RESET_VALUE;
      00003E 35 00 54 0B      [ 1]  135 	mov	0x540b+0, #0x00
                                    136 ;	lib/src/stm8s_mylib.c: 233: ADC1->AWCRH = ADC1_AWCRH_RESET_VALUE;
      000042 35 00 54 0E      [ 1]  137 	mov	0x540e+0, #0x00
                                    138 ;	lib/src/stm8s_mylib.c: 234: ADC1->AWCRL = ADC1_AWCRL_RESET_VALUE;
      000046 35 00 54 0F      [ 1]  139 	mov	0x540f+0, #0x00
                                    140 ;	lib/src/stm8s_mylib.c: 236: ADC1->CR2 &= (uint8_t)(~ADC1_CR2_ALIGN);
      00004A 72 17 54 02      [ 1]  141 	bres	0x5402, #3
                                    142 ;	lib/src/stm8s_mylib.c: 238: ADC1->CR2 |= (uint8_t)(ADC1_ALIGN_RIGHT);
      00004E 72 16 54 02      [ 1]  143 	bset	0x5402, #3
                                    144 ;	lib/src/stm8s_mylib.c: 240: ADC1->CR1 &= (uint8_t)(~ADC1_CR1_CONT);
      000052 72 13 54 01      [ 1]  145 	bres	0x5401, #1
                                    146 ;	lib/src/stm8s_mylib.c: 243: ADC1->CSR &= (uint8_t)(~ADC1_CSR_CH);
      000056 C6 54 00         [ 1]  147 	ld	a, 0x5400
      000059 A4 F0            [ 1]  148 	and	a, #0xf0
      00005B C7 54 00         [ 1]  149 	ld	0x5400, a
                                    150 ;	lib/src/stm8s_mylib.c: 245: ADC1->CSR |= (uint8_t)(ADC1_CHANNEL_4);
      00005E 72 14 54 00      [ 1]  151 	bset	0x5400, #2
                                    152 ;	lib/src/stm8s_mylib.c: 248: ADC1->CR1 &= (uint8_t)(~ADC1_CR1_SPSEL);
      000062 C6 54 01         [ 1]  153 	ld	a, 0x5401
      000065 A4 8F            [ 1]  154 	and	a, #0x8f
      000067 C7 54 01         [ 1]  155 	ld	0x5401, a
                                    156 ;	lib/src/stm8s_mylib.c: 250: ADC1->CR1 |= (uint8_t)(ADC1_PRESSEL_FCPU_D18);
      00006A C6 54 01         [ 1]  157 	ld	a, 0x5401
      00006D AA 70            [ 1]  158 	or	a, #0x70
      00006F C7 54 01         [ 1]  159 	ld	0x5401, a
                                    160 ;	lib/src/stm8s_mylib.c: 254: ADC1->CSR |= (uint8_t)ADC1_IT_EOCIE;
      000072 72 1A 54 00      [ 1]  161 	bset	0x5400, #5
                                    162 ;	lib/src/stm8s_mylib.c: 257: ADC1->CR1 |=  ADC1_CR1_ADON;
      000076 72 10 54 01      [ 1]  163 	bset	0x5401, #0
                                    164 ;	lib/src/stm8s_mylib.c: 258: }
      00007A 81               [ 4]  165 	ret
                                    166 ;	lib/src/stm8s_mylib.c: 259: void delay_us(unsigned long int  us) {
                                    167 ;	-----------------------------------------
                                    168 ;	 function delay_us
                                    169 ;	-----------------------------------------
      00007B                        170 _delay_us:
                                    171 ;	lib/src/stm8s_mylib.c: 260: for(;us > 0; us--) nop();
      00007B 1E 05            [ 2]  172 	ldw	x, (0x05, sp)
      00007D 16 03            [ 2]  173 	ldw	y, (0x03, sp)
      00007F                        174 00103$:
      00007F 5D               [ 2]  175 	tnzw	x
      000080 26 04            [ 1]  176 	jrne	00120$
      000082 90 5D            [ 2]  177 	tnzw	y
      000084 27 0A            [ 1]  178 	jreq	00105$
      000086                        179 00120$:
      000086 9D               [ 1]  180 	nop
      000087 1D 00 01         [ 2]  181 	subw	x, #0x0001
      00008A 24 F3            [ 1]  182 	jrnc	00103$
      00008C 90 5A            [ 2]  183 	decw	y
      00008E 20 EF            [ 2]  184 	jra	00103$
      000090                        185 00105$:
                                    186 ;	lib/src/stm8s_mylib.c: 261: }
      000090 1E 01            [ 2]  187 	ldw	x, (1, sp)
      000092 5B 06            [ 2]  188 	addw	sp, #6
      000094 FC               [ 2]  189 	jp	(x)
                                    190 ;	lib/src/stm8s_mylib.c: 262: void delay_ms(unsigned int  u16Delay)
                                    191 ;	-----------------------------------------
                                    192 ;	 function delay_ms
                                    193 ;	-----------------------------------------
      000095                        194 _delay_ms:
      000095                        195 00103$:
                                    196 ;	lib/src/stm8s_mylib.c: 264: for(; u16Delay > 0; u16Delay--) delay_us(1000);
      000095 5D               [ 2]  197 	tnzw	x
      000096 26 01            [ 1]  198 	jrne	00120$
      000098 81               [ 4]  199 	ret
      000099                        200 00120$:
      000099 89               [ 2]  201 	pushw	x
      00009A 4B E8            [ 1]  202 	push	#0xe8
      00009C 4B 03            [ 1]  203 	push	#0x03
      00009E 4B 00            [ 1]  204 	push	#0x00
      0000A0 4B 00            [ 1]  205 	push	#0x00
      0000A2 CDr00r7B         [ 4]  206 	call	_delay_us
      0000A5 85               [ 2]  207 	popw	x
      0000A6 5A               [ 2]  208 	decw	x
      0000A7 20 EC            [ 2]  209 	jra	00103$
                                    210 ;	lib/src/stm8s_mylib.c: 265: }
      0000A9 81               [ 4]  211 	ret
                                    212 ;	lib/src/stm8s_mylib.c: 266: void BEEP_config(void){
                                    213 ;	-----------------------------------------
                                    214 ;	 function BEEP_config
                                    215 ;	-----------------------------------------
      0000AA                        216 _BEEP_config:
                                    217 ;	lib/src/stm8s_mylib.c: 268: BEEP->CSR = BEEP_CSR_RESET_VALUE;
      0000AA 35 1F 50 F3      [ 1]  218 	mov	0x50f3+0, #0x1f
                                    219 ;	lib/src/stm8s_mylib.c: 270: if ((BEEP->CSR & BEEP_CSR_BEEPDIV) == BEEP_CSR_BEEPDIV)
      0000AE C6 50 F3         [ 1]  220 	ld	a, 0x50f3
      0000B1 43               [ 1]  221 	cpl	a
      0000B2 A5 1F            [ 1]  222 	bcp	a, #0x1f
      0000B4 26 10            [ 1]  223 	jrne	00102$
                                    224 ;	lib/src/stm8s_mylib.c: 272: BEEP->CSR &= (uint8_t)(~BEEP_CSR_BEEPDIV); /* Clear bits */
      0000B6 C6 50 F3         [ 1]  225 	ld	a, 0x50f3
      0000B9 A4 E0            [ 1]  226 	and	a, #0xe0
      0000BB C7 50 F3         [ 1]  227 	ld	0x50f3, a
                                    228 ;	lib/src/stm8s_mylib.c: 273: BEEP->CSR |= 0x0B; /*!< Default value when calibration is not done */
      0000BE C6 50 F3         [ 1]  229 	ld	a, 0x50f3
      0000C1 AA 0B            [ 1]  230 	or	a, #0x0b
      0000C3 C7 50 F3         [ 1]  231 	ld	0x50f3, a
      0000C6                        232 00102$:
                                    233 ;	lib/src/stm8s_mylib.c: 276: BEEP->CSR &= (uint8_t)(~BEEP_CSR_BEEPSEL);
      0000C6 C6 50 F3         [ 1]  234 	ld	a, 0x50f3
      0000C9 A4 3F            [ 1]  235 	and	a, #0x3f
      0000CB C7 50 F3         [ 1]  236 	ld	0x50f3, a
                                    237 ;	lib/src/stm8s_mylib.c: 277: BEEP->CSR |= (uint8_t)(0x80); /*!< Beep signal output frequency equals to 4 KHz */
      0000CE 72 1E 50 F3      [ 1]  238 	bset	0x50f3, #7
                                    239 ;	lib/src/stm8s_mylib.c: 283: BEEP->CSR &= (uint8_t)(~BEEP_CSR_BEEPEN);
      0000D2 72 1B 50 F3      [ 1]  240 	bres	0x50f3, #5
                                    241 ;	lib/src/stm8s_mylib.c: 284: }
      0000D6 81               [ 4]  242 	ret
                                    243 ;	lib/src/stm8s_mylib.c: 285: void BEEP_Cmd(FunctionalState NewState)
                                    244 ;	-----------------------------------------
                                    245 ;	 function BEEP_Cmd
                                    246 ;	-----------------------------------------
      0000D7                        247 _BEEP_Cmd:
      0000D7 88               [ 1]  248 	push	a
      0000D8 6B 01            [ 1]  249 	ld	(0x01, sp), a
                                    250 ;	lib/src/stm8s_mylib.c: 290: BEEP->CSR |= BEEP_CSR_BEEPEN;
      0000DA C6 50 F3         [ 1]  251 	ld	a, 0x50f3
                                    252 ;	lib/src/stm8s_mylib.c: 287: if (NewState != DISABLE)
      0000DD 0D 01            [ 1]  253 	tnz	(0x01, sp)
      0000DF 27 07            [ 1]  254 	jreq	00102$
                                    255 ;	lib/src/stm8s_mylib.c: 290: BEEP->CSR |= BEEP_CSR_BEEPEN;
      0000E1 AA 20            [ 1]  256 	or	a, #0x20
      0000E3 C7 50 F3         [ 1]  257 	ld	0x50f3, a
      0000E6 20 05            [ 2]  258 	jra	00104$
      0000E8                        259 00102$:
                                    260 ;	lib/src/stm8s_mylib.c: 295: BEEP->CSR &= (uint8_t)(~BEEP_CSR_BEEPEN);
      0000E8 A4 DF            [ 1]  261 	and	a, #0xdf
      0000EA C7 50 F3         [ 1]  262 	ld	0x50f3, a
      0000ED                        263 00104$:
                                    264 ;	lib/src/stm8s_mylib.c: 297: }
      0000ED 84               [ 1]  265 	pop	a
      0000EE 81               [ 4]  266 	ret
                                    267 ;	lib/src/stm8s_mylib.c: 298: void i2c_init(void)
                                    268 ;	-----------------------------------------
                                    269 ;	 function i2c_init
                                    270 ;	-----------------------------------------
      0000EF                        271 _i2c_init:
                                    272 ;	lib/src/stm8s_mylib.c: 304: SDA_1;
      0000EF 72 1A 50 05      [ 1]  273 	bset	0x5005, #5
                                    274 ;	lib/src/stm8s_mylib.c: 305: SCL_1;
      0000F3 72 18 50 05      [ 1]  275 	bset	0x5005, #4
                                    276 ;	lib/src/stm8s_mylib.c: 306: }
      0000F7 81               [ 4]  277 	ret
                                    278 ;	lib/src/stm8s_mylib.c: 307: void i2c_start(void)
                                    279 ;	-----------------------------------------
                                    280 ;	 function i2c_start
                                    281 ;	-----------------------------------------
      0000F8                        282 _i2c_start:
                                    283 ;	lib/src/stm8s_mylib.c: 316: SCL_1;
      0000F8 72 18 50 05      [ 1]  284 	bset	0x5005, #4
                                    285 ;	lib/src/stm8s_mylib.c: 317: DELAYI2C;
      0000FC 4B 03            [ 1]  286 	push	#0x03
      0000FE 5F               [ 1]  287 	clrw	x
      0000FF 89               [ 2]  288 	pushw	x
      000100 4B 00            [ 1]  289 	push	#0x00
      000102 CDr00r7B         [ 4]  290 	call	_delay_us
                                    291 ;	lib/src/stm8s_mylib.c: 318: SDA_1;
      000105 72 1A 50 05      [ 1]  292 	bset	0x5005, #5
                                    293 ;	lib/src/stm8s_mylib.c: 319: DELAYI2C;
      000109 4B 03            [ 1]  294 	push	#0x03
      00010B 5F               [ 1]  295 	clrw	x
      00010C 89               [ 2]  296 	pushw	x
      00010D 4B 00            [ 1]  297 	push	#0x00
      00010F CDr00r7B         [ 4]  298 	call	_delay_us
                                    299 ;	lib/src/stm8s_mylib.c: 320: SDA_0;
      000112 72 1B 50 05      [ 1]  300 	bres	0x5005, #5
                                    301 ;	lib/src/stm8s_mylib.c: 321: DELAYI2C;
      000116 4B 03            [ 1]  302 	push	#0x03
      000118 5F               [ 1]  303 	clrw	x
      000119 89               [ 2]  304 	pushw	x
      00011A 4B 00            [ 1]  305 	push	#0x00
      00011C CDr00r7B         [ 4]  306 	call	_delay_us
                                    307 ;	lib/src/stm8s_mylib.c: 322: SCL_0;
      00011F 72 19 50 05      [ 1]  308 	bres	0x5005, #4
                                    309 ;	lib/src/stm8s_mylib.c: 323: DELAYI2C;
      000123 4B 03            [ 1]  310 	push	#0x03
      000125 5F               [ 1]  311 	clrw	x
      000126 89               [ 2]  312 	pushw	x
      000127 4B 00            [ 1]  313 	push	#0x00
      000129 CDr00r7B         [ 4]  314 	call	_delay_us
                                    315 ;	lib/src/stm8s_mylib.c: 325: }
      00012C 81               [ 4]  316 	ret
                                    317 ;	lib/src/stm8s_mylib.c: 326: void i2c_stop(void)
                                    318 ;	-----------------------------------------
                                    319 ;	 function i2c_stop
                                    320 ;	-----------------------------------------
      00012D                        321 _i2c_stop:
                                    322 ;	lib/src/stm8s_mylib.c: 330: SDA_0;
      00012D 72 1B 50 05      [ 1]  323 	bres	0x5005, #5
                                    324 ;	lib/src/stm8s_mylib.c: 331: DELAYI2C;
      000131 4B 03            [ 1]  325 	push	#0x03
      000133 5F               [ 1]  326 	clrw	x
      000134 89               [ 2]  327 	pushw	x
      000135 4B 00            [ 1]  328 	push	#0x00
      000137 CDr00r7B         [ 4]  329 	call	_delay_us
                                    330 ;	lib/src/stm8s_mylib.c: 332: SCL_1;
      00013A 72 18 50 05      [ 1]  331 	bset	0x5005, #4
                                    332 ;	lib/src/stm8s_mylib.c: 333: DELAYI2C;
      00013E 4B 03            [ 1]  333 	push	#0x03
      000140 5F               [ 1]  334 	clrw	x
      000141 89               [ 2]  335 	pushw	x
      000142 4B 00            [ 1]  336 	push	#0x00
      000144 CDr00r7B         [ 4]  337 	call	_delay_us
                                    338 ;	lib/src/stm8s_mylib.c: 334: SDA_1;
      000147 72 1A 50 05      [ 1]  339 	bset	0x5005, #5
                                    340 ;	lib/src/stm8s_mylib.c: 335: DELAYI2C;
      00014B 4B 03            [ 1]  341 	push	#0x03
      00014D 5F               [ 1]  342 	clrw	x
      00014E 89               [ 2]  343 	pushw	x
      00014F 4B 00            [ 1]  344 	push	#0x00
      000151 CDr00r7B         [ 4]  345 	call	_delay_us
                                    346 ;	lib/src/stm8s_mylib.c: 336: }
      000154 81               [ 4]  347 	ret
                                    348 ;	lib/src/stm8s_mylib.c: 337: uint8_t i2c_write(uint8_t u8Data)
                                    349 ;	-----------------------------------------
                                    350 ;	 function i2c_write
                                    351 ;	-----------------------------------------
      000155                        352 _i2c_write:
      000155 52 02            [ 2]  353 	sub	sp, #2
      000157 6B 01            [ 1]  354 	ld	(0x01, sp), a
                                    355 ;	lib/src/stm8s_mylib.c: 345: for (i = 0; i < 8; ++i) {
      000159 0F 02            [ 1]  356 	clr	(0x02, sp)
      00015B                        357 00108$:
                                    358 ;	lib/src/stm8s_mylib.c: 347: SDA_1;
      00015B C6 50 05         [ 1]  359 	ld	a, 0x5005
                                    360 ;	lib/src/stm8s_mylib.c: 346: if (u8Data & 0x80) {
      00015E 0D 01            [ 1]  361 	tnz	(0x01, sp)
      000160 2A 07            [ 1]  362 	jrpl	00102$
                                    363 ;	lib/src/stm8s_mylib.c: 347: SDA_1;
      000162 AA 20            [ 1]  364 	or	a, #0x20
      000164 C7 50 05         [ 1]  365 	ld	0x5005, a
      000167 20 05            [ 2]  366 	jra	00103$
      000169                        367 00102$:
                                    368 ;	lib/src/stm8s_mylib.c: 349: SDA_0;
      000169 A4 DF            [ 1]  369 	and	a, #0xdf
      00016B C7 50 05         [ 1]  370 	ld	0x5005, a
      00016E                        371 00103$:
                                    372 ;	lib/src/stm8s_mylib.c: 351: DELAYI2C;
      00016E 4B 03            [ 1]  373 	push	#0x03
      000170 5F               [ 1]  374 	clrw	x
      000171 89               [ 2]  375 	pushw	x
      000172 4B 00            [ 1]  376 	push	#0x00
      000174 CDr00r7B         [ 4]  377 	call	_delay_us
                                    378 ;	lib/src/stm8s_mylib.c: 352: SCL_1;
      000177 72 18 50 05      [ 1]  379 	bset	0x5005, #4
                                    380 ;	lib/src/stm8s_mylib.c: 353: DELAYI2C;
      00017B 4B 03            [ 1]  381 	push	#0x03
      00017D 5F               [ 1]  382 	clrw	x
      00017E 89               [ 2]  383 	pushw	x
      00017F 4B 00            [ 1]  384 	push	#0x00
      000181 CDr00r7B         [ 4]  385 	call	_delay_us
                                    386 ;	lib/src/stm8s_mylib.c: 354: SCL_0;
      000184 72 19 50 05      [ 1]  387 	bres	0x5005, #4
                                    388 ;	lib/src/stm8s_mylib.c: 356: u8Data <<= 1;
      000188 08 01            [ 1]  389 	sll	(0x01, sp)
                                    390 ;	lib/src/stm8s_mylib.c: 345: for (i = 0; i < 8; ++i) {
      00018A 0C 02            [ 1]  391 	inc	(0x02, sp)
      00018C 7B 02            [ 1]  392 	ld	a, (0x02, sp)
      00018E A1 08            [ 1]  393 	cp	a, #0x08
      000190 25 C9            [ 1]  394 	jrc	00108$
                                    395 ;	lib/src/stm8s_mylib.c: 359: SDA_0;
      000192 72 1B 50 05      [ 1]  396 	bres	0x5005, #5
                                    397 ;	lib/src/stm8s_mylib.c: 360: DELAYI2C;
      000196 4B 03            [ 1]  398 	push	#0x03
      000198 5F               [ 1]  399 	clrw	x
      000199 89               [ 2]  400 	pushw	x
      00019A 4B 00            [ 1]  401 	push	#0x00
      00019C CDr00r7B         [ 4]  402 	call	_delay_us
                                    403 ;	lib/src/stm8s_mylib.c: 362: SCL_1;
      00019F 72 18 50 05      [ 1]  404 	bset	0x5005, #4
                                    405 ;	lib/src/stm8s_mylib.c: 363: DELAYI2C;
      0001A3 4B 03            [ 1]  406 	push	#0x03
      0001A5 5F               [ 1]  407 	clrw	x
      0001A6 89               [ 2]  408 	pushw	x
      0001A7 4B 00            [ 1]  409 	push	#0x00
      0001A9 CDr00r7B         [ 4]  410 	call	_delay_us
                                    411 ;	lib/src/stm8s_mylib.c: 364: SCL_0;
      0001AC 72 19 50 05      [ 1]  412 	bres	0x5005, #4
                                    413 ;	lib/src/stm8s_mylib.c: 365: DELAYI2C;
      0001B0 4B 03            [ 1]  414 	push	#0x03
      0001B2 5F               [ 1]  415 	clrw	x
      0001B3 89               [ 2]  416 	pushw	x
      0001B4 4B 00            [ 1]  417 	push	#0x00
      0001B6 CDr00r7B         [ 4]  418 	call	_delay_us
                                    419 ;	lib/src/stm8s_mylib.c: 366: SDA_1;
      0001B9 72 1A 50 05      [ 1]  420 	bset	0x5005, #5
                                    421 ;	lib/src/stm8s_mylib.c: 367: if (SDA_VAL) {
      0001BD 72 0B 50 06 02   [ 2]  422 	btjf	0x5006, #5, 00106$
                                    423 ;	lib/src/stm8s_mylib.c: 368: u8Ret = 0;
      0001C2 4F               [ 1]  424 	clr	a
                                    425 ;	lib/src/stm8s_mylib.c: 370: u8Ret = 1;
      0001C3 C5                     426 	.byte 0xc5
      0001C4                        427 00106$:
      0001C4 A6 01            [ 1]  428 	ld	a, #0x01
      0001C6                        429 00107$:
                                    430 ;	lib/src/stm8s_mylib.c: 372: DELAYI2C;
      0001C6 88               [ 1]  431 	push	a
      0001C7 4B 03            [ 1]  432 	push	#0x03
      0001C9 5F               [ 1]  433 	clrw	x
      0001CA 89               [ 2]  434 	pushw	x
      0001CB 4B 00            [ 1]  435 	push	#0x00
      0001CD CDr00r7B         [ 4]  436 	call	_delay_us
      0001D0 84               [ 1]  437 	pop	a
                                    438 ;	lib/src/stm8s_mylib.c: 373: return u8Ret;
                                    439 ;	lib/src/stm8s_mylib.c: 374: }
      0001D1 5B 02            [ 2]  440 	addw	sp, #2
      0001D3 81               [ 4]  441 	ret
                                    442 ;	lib/src/stm8s_mylib.c: 375: uint8_t i2c_read(uint8_t Ack)
                                    443 ;	-----------------------------------------
                                    444 ;	 function i2c_read
                                    445 ;	-----------------------------------------
      0001D4                        446 _i2c_read:
      0001D4 52 03            [ 2]  447 	sub	sp, #3
      0001D6 6B 01            [ 1]  448 	ld	(0x01, sp), a
                                    449 ;	lib/src/stm8s_mylib.c: 377: uint8_t u8DataRead = 0;
      0001D8 0F 02            [ 1]  450 	clr	(0x02, sp)
                                    451 ;	lib/src/stm8s_mylib.c: 379: SDA_1;
      0001DA 72 1A 50 05      [ 1]  452 	bset	0x5005, #5
                                    453 ;	lib/src/stm8s_mylib.c: 380: for (i = 0; i < 8; ++i)
      0001DE 0F 03            [ 1]  454 	clr	(0x03, sp)
      0001E0                        455 00107$:
                                    456 ;	lib/src/stm8s_mylib.c: 382: u8DataRead = u8DataRead << 1;
      0001E0 08 02            [ 1]  457 	sll	(0x02, sp)
                                    458 ;	lib/src/stm8s_mylib.c: 383: SCL_1;
      0001E2 72 18 50 05      [ 1]  459 	bset	0x5005, #4
                                    460 ;	lib/src/stm8s_mylib.c: 384: DELAYI2C;
      0001E6 4B 03            [ 1]  461 	push	#0x03
      0001E8 5F               [ 1]  462 	clrw	x
      0001E9 89               [ 2]  463 	pushw	x
      0001EA 4B 00            [ 1]  464 	push	#0x00
      0001EC CDr00r7B         [ 4]  465 	call	_delay_us
                                    466 ;	lib/src/stm8s_mylib.c: 385: if (SDA_VAL)
      0001EF 72 0B 50 06 05   [ 2]  467 	btjf	0x5006, #5, 00102$
                                    468 ;	lib/src/stm8s_mylib.c: 387: u8DataRead = u8DataRead | 0x01;
      0001F4 04 02            [ 1]  469 	srl	(0x02, sp)
      0001F6 99               [ 1]  470 	scf
      0001F7 09 02            [ 1]  471 	rlc	(0x02, sp)
      0001F9                        472 00102$:
                                    473 ;	lib/src/stm8s_mylib.c: 389: DELAYI2C;
      0001F9 4B 03            [ 1]  474 	push	#0x03
      0001FB 5F               [ 1]  475 	clrw	x
      0001FC 89               [ 2]  476 	pushw	x
      0001FD 4B 00            [ 1]  477 	push	#0x00
      0001FF CDr00r7B         [ 4]  478 	call	_delay_us
                                    479 ;	lib/src/stm8s_mylib.c: 390: SCL_0;
      000202 72 19 50 05      [ 1]  480 	bres	0x5005, #4
                                    481 ;	lib/src/stm8s_mylib.c: 391: DELAYI2C;
      000206 4B 03            [ 1]  482 	push	#0x03
      000208 5F               [ 1]  483 	clrw	x
      000209 89               [ 2]  484 	pushw	x
      00020A 4B 00            [ 1]  485 	push	#0x00
      00020C CDr00r7B         [ 4]  486 	call	_delay_us
                                    487 ;	lib/src/stm8s_mylib.c: 380: for (i = 0; i < 8; ++i)
      00020F 0C 03            [ 1]  488 	inc	(0x03, sp)
      000211 7B 03            [ 1]  489 	ld	a, (0x03, sp)
      000213 A1 08            [ 1]  490 	cp	a, #0x08
      000215 25 C9            [ 1]  491 	jrc	00107$
                                    492 ;	lib/src/stm8s_mylib.c: 379: SDA_1;
      000217 C6 50 05         [ 1]  493 	ld	a, 0x5005
                                    494 ;	lib/src/stm8s_mylib.c: 394: if(Ack){
      00021A 0D 01            [ 1]  495 	tnz	(0x01, sp)
      00021C 27 07            [ 1]  496 	jreq	00105$
                                    497 ;	lib/src/stm8s_mylib.c: 395: SDA_0;
      00021E A4 DF            [ 1]  498 	and	a, #0xdf
      000220 C7 50 05         [ 1]  499 	ld	0x5005, a
      000223 20 05            [ 2]  500 	jra	00106$
      000225                        501 00105$:
                                    502 ;	lib/src/stm8s_mylib.c: 397: SDA_1;
      000225 AA 20            [ 1]  503 	or	a, #0x20
      000227 C7 50 05         [ 1]  504 	ld	0x5005, a
      00022A                        505 00106$:
                                    506 ;	lib/src/stm8s_mylib.c: 399: DELAYI2C;
      00022A 4B 03            [ 1]  507 	push	#0x03
      00022C 5F               [ 1]  508 	clrw	x
      00022D 89               [ 2]  509 	pushw	x
      00022E 4B 00            [ 1]  510 	push	#0x00
      000230 CDr00r7B         [ 4]  511 	call	_delay_us
                                    512 ;	lib/src/stm8s_mylib.c: 401: SCL_1;
      000233 72 18 50 05      [ 1]  513 	bset	0x5005, #4
                                    514 ;	lib/src/stm8s_mylib.c: 402: DELAYI2C;
      000237 4B 03            [ 1]  515 	push	#0x03
      000239 5F               [ 1]  516 	clrw	x
      00023A 89               [ 2]  517 	pushw	x
      00023B 4B 00            [ 1]  518 	push	#0x00
      00023D CDr00r7B         [ 4]  519 	call	_delay_us
                                    520 ;	lib/src/stm8s_mylib.c: 403: SCL_0;
      000240 72 19 50 05      [ 1]  521 	bres	0x5005, #4
                                    522 ;	lib/src/stm8s_mylib.c: 404: DELAYI2C;
      000244 4B 03            [ 1]  523 	push	#0x03
      000246 5F               [ 1]  524 	clrw	x
      000247 89               [ 2]  525 	pushw	x
      000248 4B 00            [ 1]  526 	push	#0x00
      00024A CDr00r7B         [ 4]  527 	call	_delay_us
                                    528 ;	lib/src/stm8s_mylib.c: 405: return u8DataRead;
      00024D 7B 02            [ 1]  529 	ld	a, (0x02, sp)
                                    530 ;	lib/src/stm8s_mylib.c: 406: }
      00024F 5B 03            [ 2]  531 	addw	sp, #3
      000251 81               [ 4]  532 	ret
                                    533 ;	lib/src/stm8s_mylib.c: 407: uint8_t data_write(uint8_t address, uint8_t addressData, uint8_t num, uint8_t *data)
                                    534 ;	-----------------------------------------
                                    535 ;	 function data_write
                                    536 ;	-----------------------------------------
      000252                        537 _data_write:
      000252 52 03            [ 2]  538 	sub	sp, #3
      000254 6B 01            [ 1]  539 	ld	(0x01, sp), a
                                    540 ;	lib/src/stm8s_mylib.c: 410: for(i=0; i< num; ++i)
      000256 7B 06            [ 1]  541 	ld	a, (0x06, sp)
      000258 6B 02            [ 1]  542 	ld	(0x02, sp), a
      00025A 0F 03            [ 1]  543 	clr	(0x03, sp)
      00025C                        544 00103$:
      00025C 7B 03            [ 1]  545 	ld	a, (0x03, sp)
      00025E 11 07            [ 1]  546 	cp	a, (0x07, sp)
      000260 24 2A            [ 1]  547 	jrnc	00101$
                                    548 ;	lib/src/stm8s_mylib.c: 412: i2c_start();
      000262 CDr00rF8         [ 4]  549 	call	_i2c_start
                                    550 ;	lib/src/stm8s_mylib.c: 413: i2c_write(address);
      000265 7B 01            [ 1]  551 	ld	a, (0x01, sp)
      000267 CDr01r55         [ 4]  552 	call	_i2c_write
                                    553 ;	lib/src/stm8s_mylib.c: 414: i2c_write(addressData++);
      00026A 7B 02            [ 1]  554 	ld	a, (0x02, sp)
      00026C 0C 02            [ 1]  555 	inc	(0x02, sp)
      00026E CDr01r55         [ 4]  556 	call	_i2c_write
                                    557 ;	lib/src/stm8s_mylib.c: 415: i2c_write(data[i]);
      000271 5F               [ 1]  558 	clrw	x
      000272 7B 03            [ 1]  559 	ld	a, (0x03, sp)
      000274 97               [ 1]  560 	ld	xl, a
      000275 72 FB 08         [ 2]  561 	addw	x, (0x08, sp)
      000278 F6               [ 1]  562 	ld	a, (x)
      000279 CDr01r55         [ 4]  563 	call	_i2c_write
                                    564 ;	lib/src/stm8s_mylib.c: 416: i2c_stop();
      00027C CDr01r2D         [ 4]  565 	call	_i2c_stop
                                    566 ;	lib/src/stm8s_mylib.c: 417: delay_us(1000);
      00027F 4B E8            [ 1]  567 	push	#0xe8
      000281 4B 03            [ 1]  568 	push	#0x03
      000283 5F               [ 1]  569 	clrw	x
      000284 89               [ 2]  570 	pushw	x
      000285 CDr00r7B         [ 4]  571 	call	_delay_us
                                    572 ;	lib/src/stm8s_mylib.c: 410: for(i=0; i< num; ++i)
      000288 0C 03            [ 1]  573 	inc	(0x03, sp)
      00028A 20 D0            [ 2]  574 	jra	00103$
      00028C                        575 00101$:
                                    576 ;	lib/src/stm8s_mylib.c: 419: return 1;
      00028C A6 01            [ 1]  577 	ld	a, #0x01
                                    578 ;	lib/src/stm8s_mylib.c: 420: }
      00028E 1E 04            [ 2]  579 	ldw	x, (4, sp)
      000290 5B 09            [ 2]  580 	addw	sp, #9
      000292 FC               [ 2]  581 	jp	(x)
                                    582 ;	lib/src/stm8s_mylib.c: 421: uint8_t data_read(uint8_t address, uint8_t addressData, uint8_t num, uint8_t *data)
                                    583 ;	-----------------------------------------
                                    584 ;	 function data_read
                                    585 ;	-----------------------------------------
      000293                        586 _data_read:
      000293 52 04            [ 2]  587 	sub	sp, #4
      000295 6B 03            [ 1]  588 	ld	(0x03, sp), a
                                    589 ;	lib/src/stm8s_mylib.c: 424: i2c_start();
      000297 CDr00rF8         [ 4]  590 	call	_i2c_start
                                    591 ;	lib/src/stm8s_mylib.c: 425: i2c_write(address);
      00029A 7B 03            [ 1]  592 	ld	a, (0x03, sp)
      00029C CDr01r55         [ 4]  593 	call	_i2c_write
                                    594 ;	lib/src/stm8s_mylib.c: 426: i2c_write(addressData);
      00029F 7B 07            [ 1]  595 	ld	a, (0x07, sp)
      0002A1 CDr01r55         [ 4]  596 	call	_i2c_write
                                    597 ;	lib/src/stm8s_mylib.c: 428: i2c_start();
      0002A4 CDr00rF8         [ 4]  598 	call	_i2c_start
                                    599 ;	lib/src/stm8s_mylib.c: 429: i2c_write(address | 0x01);
      0002A7 7B 03            [ 1]  600 	ld	a, (0x03, sp)
      0002A9 AA 01            [ 1]  601 	or	a, #0x01
      0002AB CDr01r55         [ 4]  602 	call	_i2c_write
                                    603 ;	lib/src/stm8s_mylib.c: 430: for(i=0; i< num - 1; ++i)
      0002AE 0F 04            [ 1]  604 	clr	(0x04, sp)
      0002B0                        605 00103$:
      0002B0 5F               [ 1]  606 	clrw	x
      0002B1 7B 08            [ 1]  607 	ld	a, (0x08, sp)
      0002B3 97               [ 1]  608 	ld	xl, a
      0002B4 5A               [ 2]  609 	decw	x
      0002B5 1F 01            [ 2]  610 	ldw	(0x01, sp), x
      0002B7 90 5F            [ 1]  611 	clrw	y
      0002B9 7B 04            [ 1]  612 	ld	a, (0x04, sp)
      0002BB 90 97            [ 1]  613 	ld	yl, a
                                    614 ;	lib/src/stm8s_mylib.c: 432: data[i] = i2c_read(1);
      0002BD 5F               [ 1]  615 	clrw	x
      0002BE 7B 04            [ 1]  616 	ld	a, (0x04, sp)
      0002C0 97               [ 1]  617 	ld	xl, a
      0002C1 72 FB 09         [ 2]  618 	addw	x, (0x09, sp)
                                    619 ;	lib/src/stm8s_mylib.c: 430: for(i=0; i< num - 1; ++i)
      0002C4 51               [ 1]  620 	exgw	x, y
      0002C5 13 01            [ 2]  621 	cpw	x, (0x01, sp)
      0002C7 51               [ 1]  622 	exgw	x, y
      0002C8 2E 0C            [ 1]  623 	jrsge	00101$
                                    624 ;	lib/src/stm8s_mylib.c: 432: data[i] = i2c_read(1);
      0002CA 89               [ 2]  625 	pushw	x
      0002CB A6 01            [ 1]  626 	ld	a, #0x01
      0002CD CDr01rD4         [ 4]  627 	call	_i2c_read
      0002D0 85               [ 2]  628 	popw	x
      0002D1 F7               [ 1]  629 	ld	(x), a
                                    630 ;	lib/src/stm8s_mylib.c: 430: for(i=0; i< num - 1; ++i)
      0002D2 0C 04            [ 1]  631 	inc	(0x04, sp)
      0002D4 20 DA            [ 2]  632 	jra	00103$
      0002D6                        633 00101$:
                                    634 ;	lib/src/stm8s_mylib.c: 434: data[i] = i2c_read(0);
      0002D6 89               [ 2]  635 	pushw	x
      0002D7 4F               [ 1]  636 	clr	a
      0002D8 CDr01rD4         [ 4]  637 	call	_i2c_read
      0002DB 85               [ 2]  638 	popw	x
      0002DC F7               [ 1]  639 	ld	(x), a
                                    640 ;	lib/src/stm8s_mylib.c: 435: i2c_stop();
      0002DD CDr01r2D         [ 4]  641 	call	_i2c_stop
                                    642 ;	lib/src/stm8s_mylib.c: 436: return 1;
      0002E0 A6 01            [ 1]  643 	ld	a, #0x01
                                    644 ;	lib/src/stm8s_mylib.c: 437: }
      0002E2 1E 05            [ 2]  645 	ldw	x, (5, sp)
      0002E4 5B 0A            [ 2]  646 	addw	sp, #10
      0002E6 FC               [ 2]  647 	jp	(x)
                                    648 ;	lib/src/stm8s_mylib.c: 438: uint8_t decimal_to_bcd(uint8_t value)
                                    649 ;	-----------------------------------------
                                    650 ;	 function decimal_to_bcd
                                    651 ;	-----------------------------------------
      0002E7                        652 _decimal_to_bcd:
      0002E7 88               [ 1]  653 	push	a
                                    654 ;	lib/src/stm8s_mylib.c: 441: hex = (((value / 10) << 4) + (value % 10));
      0002E8 5F               [ 1]  655 	clrw	x
      0002E9 97               [ 1]  656 	ld	xl, a
      0002EA 89               [ 2]  657 	pushw	x
      0002EB 4B 0A            [ 1]  658 	push	#0x0a
      0002ED 4B 00            [ 1]  659 	push	#0x00
      0002EF CDr00r00         [ 4]  660 	call	__divsint
      0002F2 9F               [ 1]  661 	ld	a, xl
      0002F3 85               [ 2]  662 	popw	x
      0002F4 4E               [ 1]  663 	swap	a
      0002F5 A4 F0            [ 1]  664 	and	a, #0xf0
      0002F7 6B 01            [ 1]  665 	ld	(0x01, sp), a
      0002F9 4B 0A            [ 1]  666 	push	#0x0a
      0002FB 4B 00            [ 1]  667 	push	#0x00
      0002FD CDr00r00         [ 4]  668 	call	__modsint
      000300 9F               [ 1]  669 	ld	a, xl
      000301 1B 01            [ 1]  670 	add	a, (0x01, sp)
                                    671 ;	lib/src/stm8s_mylib.c: 442: return hex;
                                    672 ;	lib/src/stm8s_mylib.c: 443: }
      000303 5B 01            [ 2]  673 	addw	sp, #1
      000305 81               [ 4]  674 	ret
                                    675 ;	lib/src/stm8s_mylib.c: 444: void writeTime(uint8_t giay, uint8_t phut, uint8_t gio){
                                    676 ;	-----------------------------------------
                                    677 ;	 function writeTime
                                    678 ;	-----------------------------------------
      000306                        679 _writeTime:
      000306 52 03            [ 2]  680 	sub	sp, #3
                                    681 ;	lib/src/stm8s_mylib.c: 446: u8Data[0] = decimal_to_bcd(giay);
      000308 CDr02rE7         [ 4]  682 	call	_decimal_to_bcd
      00030B 6B 01            [ 1]  683 	ld	(0x01, sp), a
                                    684 ;	lib/src/stm8s_mylib.c: 447: u8Data[1] = decimal_to_bcd(phut);
      00030D 7B 06            [ 1]  685 	ld	a, (0x06, sp)
      00030F CDr02rE7         [ 4]  686 	call	_decimal_to_bcd
      000312 6B 02            [ 1]  687 	ld	(0x02, sp), a
                                    688 ;	lib/src/stm8s_mylib.c: 448: u8Data[2] = decimal_to_bcd(gio);
      000314 7B 07            [ 1]  689 	ld	a, (0x07, sp)
      000316 CDr02rE7         [ 4]  690 	call	_decimal_to_bcd
      000319 6B 03            [ 1]  691 	ld	(0x03, sp), a
                                    692 ;	lib/src/stm8s_mylib.c: 449: data_write(ADDR_DS13, 0x00, 3, u8Data);
      00031B 96               [ 1]  693 	ldw	x, sp
      00031C 5C               [ 1]  694 	incw	x
      00031D 89               [ 2]  695 	pushw	x
      00031E 4B 03            [ 1]  696 	push	#0x03
      000320 4B 00            [ 1]  697 	push	#0x00
      000322 A6 D0            [ 1]  698 	ld	a, #0xd0
      000324 CDr02r52         [ 4]  699 	call	_data_write
                                    700 ;	lib/src/stm8s_mylib.c: 450: }
      000327 1E 04            [ 2]  701 	ldw	x, (4, sp)
      000329 5B 07            [ 2]  702 	addw	sp, #7
      00032B FC               [ 2]  703 	jp	(x)
                                    704 ;	lib/src/stm8s_mylib.c: 451: void writeDay(uint8_t date, uint8_t month){
                                    705 ;	-----------------------------------------
                                    706 ;	 function writeDay
                                    707 ;	-----------------------------------------
      00032C                        708 _writeDay:
      00032C 52 02            [ 2]  709 	sub	sp, #2
                                    710 ;	lib/src/stm8s_mylib.c: 453: u8Data[0] = decimal_to_bcd(date);
      00032E CDr02rE7         [ 4]  711 	call	_decimal_to_bcd
      000331 6B 01            [ 1]  712 	ld	(0x01, sp), a
                                    713 ;	lib/src/stm8s_mylib.c: 454: u8Data[1] = decimal_to_bcd(month);
      000333 7B 05            [ 1]  714 	ld	a, (0x05, sp)
      000335 CDr02rE7         [ 4]  715 	call	_decimal_to_bcd
      000338 6B 02            [ 1]  716 	ld	(0x02, sp), a
                                    717 ;	lib/src/stm8s_mylib.c: 455: data_write(ADDR_DS13, 0x04, 2, u8Data);
      00033A 96               [ 1]  718 	ldw	x, sp
      00033B 5C               [ 1]  719 	incw	x
      00033C 89               [ 2]  720 	pushw	x
      00033D 4B 02            [ 1]  721 	push	#0x02
      00033F 4B 04            [ 1]  722 	push	#0x04
      000341 A6 D0            [ 1]  723 	ld	a, #0xd0
      000343 CDr02r52         [ 4]  724 	call	_data_write
                                    725 ;	lib/src/stm8s_mylib.c: 456: }
      000346 5B 02            [ 2]  726 	addw	sp, #2
      000348 85               [ 2]  727 	popw	x
      000349 84               [ 1]  728 	pop	a
      00034A FC               [ 2]  729 	jp	(x)
                                    730 ;	lib/src/stm8s_mylib.c: 457: void Write_EEPROM(uint32_t Address, unsigned char Data){
                                    731 ;	-----------------------------------------
                                    732 ;	 function Write_EEPROM
                                    733 ;	-----------------------------------------
      00034B                        734 _Write_EEPROM:
                                    735 ;	lib/src/stm8s_mylib.c: 459: FLASH->DUKR = (uint8_t)0xAE ; /*!< Second RASS key */ /* Warning: keys are reversed on data memory !!! */ 
      00034B 35 AE 50 64      [ 1]  736 	mov	0x5064+0, #0xae
                                    737 ;	lib/src/stm8s_mylib.c: 460: FLASH->DUKR = (uint8_t)0x56 ;  /*!< First RASS key */
      00034F 35 56 50 64      [ 1]  738 	mov	0x5064+0, #0x56
                                    739 ;	lib/src/stm8s_mylib.c: 462: *(PointerAttr uint8_t*) (MemoryAddressCast)Address = Data;
      000353 1E 05            [ 2]  740 	ldw	x, (0x05, sp)
      000355 7B 07            [ 1]  741 	ld	a, (0x07, sp)
      000357 F7               [ 1]  742 	ld	(x), a
                                    743 ;	lib/src/stm8s_mylib.c: 465: FLASH->IAPSR &= (uint8_t)0xF7; /*!< Data EEPROM memory */
      000358 C6 50 5F         [ 1]  744 	ld	a, 0x505f
      00035B A4 F7            [ 1]  745 	and	a, #0xf7
      00035D C7 50 5F         [ 1]  746 	ld	0x505f, a
                                    747 ;	lib/src/stm8s_mylib.c: 466: }
      000360 1E 01            [ 2]  748 	ldw	x, (1, sp)
      000362 5B 07            [ 2]  749 	addw	sp, #7
      000364 FC               [ 2]  750 	jp	(x)
                                    751 ;	lib/src/stm8s_mylib.c: 467: uint8_t Read_EEPROM(uint32_t Address){
                                    752 ;	-----------------------------------------
                                    753 ;	 function Read_EEPROM
                                    754 ;	-----------------------------------------
      000365                        755 _Read_EEPROM:
                                    756 ;	lib/src/stm8s_mylib.c: 468: return(*(PointerAttr uint8_t *) (MemoryAddressCast)Address);
      000365 1E 05            [ 2]  757 	ldw	x, (0x05, sp)
      000367 F6               [ 1]  758 	ld	a, (x)
                                    759 ;	lib/src/stm8s_mylib.c: 469: }
      000368 1E 01            [ 2]  760 	ldw	x, (1, sp)
      00036A 5B 06            [ 2]  761 	addw	sp, #6
      00036C FC               [ 2]  762 	jp	(x)
                                    763 ;	lib/src/stm8s_mylib.c: 470: void SD1106_sendCom(uint8_t command){
                                    764 ;	-----------------------------------------
                                    765 ;	 function SD1106_sendCom
                                    766 ;	-----------------------------------------
      00036D                        767 _SD1106_sendCom:
      00036D 88               [ 1]  768 	push	a
      00036E 6B 01            [ 1]  769 	ld	(0x01, sp), a
                                    770 ;	lib/src/stm8s_mylib.c: 471: i2c_start();                // initialize I2C first
      000370 CDr00rF8         [ 4]  771 	call	_i2c_start
                                    772 ;	lib/src/stm8s_mylib.c: 472: i2c_write(OLED_ADDR);
      000373 A6 78            [ 1]  773 	ld	a, #0x78
      000375 CDr01r55         [ 4]  774 	call	_i2c_write
                                    775 ;	lib/src/stm8s_mylib.c: 473: i2c_write(OLED_CMD_MODE);   // set command mode
      000378 A6 80            [ 1]  776 	ld	a, #0x80
      00037A CDr01r55         [ 4]  777 	call	_i2c_write
                                    778 ;	lib/src/stm8s_mylib.c: 474: i2c_write(command);         // send the command bytes
      00037D 7B 01            [ 1]  779 	ld	a, (0x01, sp)
      00037F CDr01r55         [ 4]  780 	call	_i2c_write
                                    781 ;	lib/src/stm8s_mylib.c: 475: i2c_stop();  
      000382 84               [ 1]  782 	pop	a
      000383 CCr01r2D         [ 2]  783 	jp	_i2c_stop
                                    784 ;	lib/src/stm8s_mylib.c: 477: }
      000386 84               [ 1]  785 	pop	a
      000387 81               [ 4]  786 	ret
                                    787 ;	lib/src/stm8s_mylib.c: 478: void SD1106_sendInitCom(void){
                                    788 ;	-----------------------------------------
                                    789 ;	 function SD1106_sendInitCom
                                    790 ;	-----------------------------------------
      000388                        791 _SD1106_sendInitCom:
                                    792 ;	lib/src/stm8s_mylib.c: 479: SD1106_sendCom(DISPLAYOFF);
      000388 A6 AE            [ 1]  793 	ld	a, #0xae
      00038A CDr03r6D         [ 4]  794 	call	_SD1106_sendCom
                                    795 ;	lib/src/stm8s_mylib.c: 480: SD1106_sendCom(NORMALDISPLAY);
      00038D A6 A6            [ 1]  796 	ld	a, #0xa6
      00038F CDr03r6D         [ 4]  797 	call	_SD1106_sendCom
                                    798 ;	lib/src/stm8s_mylib.c: 481: SD1106_sendCom(SETDISPLAYCLOCKDIV);
      000392 A6 D5            [ 1]  799 	ld	a, #0xd5
      000394 CDr03r6D         [ 4]  800 	call	_SD1106_sendCom
                                    801 ;	lib/src/stm8s_mylib.c: 482: SD1106_sendCom(0x80);
      000397 A6 80            [ 1]  802 	ld	a, #0x80
      000399 CDr03r6D         [ 4]  803 	call	_SD1106_sendCom
                                    804 ;	lib/src/stm8s_mylib.c: 483: SD1106_sendCom(SETMULTIPLEX);
      00039C A6 A8            [ 1]  805 	ld	a, #0xa8
      00039E CDr03r6D         [ 4]  806 	call	_SD1106_sendCom
                                    807 ;	lib/src/stm8s_mylib.c: 484: SD1106_sendCom(0x3f);   //0x3F
      0003A1 A6 3F            [ 1]  808 	ld	a, #0x3f
      0003A3 CDr03r6D         [ 4]  809 	call	_SD1106_sendCom
                                    810 ;	lib/src/stm8s_mylib.c: 485: SD1106_sendCom(SETDISPLAYOFFSET);
      0003A6 A6 D3            [ 1]  811 	ld	a, #0xd3
      0003A8 CDr03r6D         [ 4]  812 	call	_SD1106_sendCom
                                    813 ;	lib/src/stm8s_mylib.c: 486: SD1106_sendCom(0x00);
      0003AB 4F               [ 1]  814 	clr	a
      0003AC CDr03r6D         [ 4]  815 	call	_SD1106_sendCom
                                    816 ;	lib/src/stm8s_mylib.c: 487: SD1106_sendCom(SETSTARTLINE | 0x00);
      0003AF A6 40            [ 1]  817 	ld	a, #0x40
      0003B1 CDr03r6D         [ 4]  818 	call	_SD1106_sendCom
                                    819 ;	lib/src/stm8s_mylib.c: 488: SD1106_sendCom(CHARGEPUMP);
      0003B4 A6 8D            [ 1]  820 	ld	a, #0x8d
      0003B6 CDr03r6D         [ 4]  821 	call	_SD1106_sendCom
                                    822 ;	lib/src/stm8s_mylib.c: 489: SD1106_sendCom(0x14);
      0003B9 A6 14            [ 1]  823 	ld	a, #0x14
      0003BB CDr03r6D         [ 4]  824 	call	_SD1106_sendCom
                                    825 ;	lib/src/stm8s_mylib.c: 490: SD1106_sendCom(MEMORYMODE);
      0003BE A6 20            [ 1]  826 	ld	a, #0x20
      0003C0 CDr03r6D         [ 4]  827 	call	_SD1106_sendCom
                                    828 ;	lib/src/stm8s_mylib.c: 491: SD1106_sendCom(0x00);
      0003C3 4F               [ 1]  829 	clr	a
      0003C4 CDr03r6D         [ 4]  830 	call	_SD1106_sendCom
                                    831 ;	lib/src/stm8s_mylib.c: 492: SD1106_sendCom(SEGREMAP);   //A0: le phai, A1: le trai
      0003C7 A6 A1            [ 1]  832 	ld	a, #0xa1
      0003C9 CDr03r6D         [ 4]  833 	call	_SD1106_sendCom
                                    834 ;	lib/src/stm8s_mylib.c: 493: SD1106_sendCom(COMSCANDEC); //0xC8: scan from COM(n-1) to COM0 : hien thi o tren, 0xC0 scan from COM0 to COM(n-1) : hien thi o duoi
      0003CC A6 C8            [ 1]  835 	ld	a, #0xc8
      0003CE CDr03r6D         [ 4]  836 	call	_SD1106_sendCom
                                    837 ;	lib/src/stm8s_mylib.c: 494: SD1106_sendCom(SETCOMPINS);
      0003D1 A6 DA            [ 1]  838 	ld	a, #0xda
      0003D3 CDr03r6D         [ 4]  839 	call	_SD1106_sendCom
                                    840 ;	lib/src/stm8s_mylib.c: 495: SD1106_sendCom(0x12); //0x12
      0003D6 A6 12            [ 1]  841 	ld	a, #0x12
      0003D8 CDr03r6D         [ 4]  842 	call	_SD1106_sendCom
                                    843 ;	lib/src/stm8s_mylib.c: 496: SD1106_sendCom(SETCONTRAST);
      0003DB A6 81            [ 1]  844 	ld	a, #0x81
      0003DD CDr03r6D         [ 4]  845 	call	_SD1106_sendCom
                                    846 ;	lib/src/stm8s_mylib.c: 497: SD1106_sendCom(0xcf);
      0003E0 A6 CF            [ 1]  847 	ld	a, #0xcf
      0003E2 CDr03r6D         [ 4]  848 	call	_SD1106_sendCom
                                    849 ;	lib/src/stm8s_mylib.c: 498: SD1106_sendCom(SETPRECHARGE);
      0003E5 A6 D9            [ 1]  850 	ld	a, #0xd9
      0003E7 CDr03r6D         [ 4]  851 	call	_SD1106_sendCom
                                    852 ;	lib/src/stm8s_mylib.c: 499: SD1106_sendCom(0xF1);
      0003EA A6 F1            [ 1]  853 	ld	a, #0xf1
      0003EC CDr03r6D         [ 4]  854 	call	_SD1106_sendCom
                                    855 ;	lib/src/stm8s_mylib.c: 500: SD1106_sendCom(SETVCOMDETECT);
      0003EF A6 DB            [ 1]  856 	ld	a, #0xdb
      0003F1 CDr03r6D         [ 4]  857 	call	_SD1106_sendCom
                                    858 ;	lib/src/stm8s_mylib.c: 501: SD1106_sendCom(0x40);
      0003F4 A6 40            [ 1]  859 	ld	a, #0x40
      0003F6 CDr03r6D         [ 4]  860 	call	_SD1106_sendCom
                                    861 ;	lib/src/stm8s_mylib.c: 502: SD1106_sendCom(DISPLAYALLON_RESUME);
      0003F9 A6 A4            [ 1]  862 	ld	a, #0xa4
      0003FB CDr03r6D         [ 4]  863 	call	_SD1106_sendCom
                                    864 ;	lib/src/stm8s_mylib.c: 503: SD1106_sendCom(NORMALDISPLAY);
      0003FE A6 A6            [ 1]  865 	ld	a, #0xa6
      000400 CDr03r6D         [ 4]  866 	call	_SD1106_sendCom
                                    867 ;	lib/src/stm8s_mylib.c: 504: SD1106_sendCom(0x2E);   //stop scroll
      000403 A6 2E            [ 1]  868 	ld	a, #0x2e
      000405 CDr03r6D         [ 4]  869 	call	_SD1106_sendCom
                                    870 ;	lib/src/stm8s_mylib.c: 505: SD1106_sendCom(DISPLAYON);
      000408 A6 AF            [ 1]  871 	ld	a, #0xaf
                                    872 ;	lib/src/stm8s_mylib.c: 506: }
      00040A CCr03r6D         [ 2]  873 	jp	_SD1106_sendCom
                                    874 ;	lib/src/stm8s_mylib.c: 507: void SD1106_clear(void)
                                    875 ;	-----------------------------------------
                                    876 ;	 function SD1106_clear
                                    877 ;	-----------------------------------------
      00040D                        878 _SD1106_clear:
      00040D 52 02            [ 2]  879 	sub	sp, #2
                                    880 ;	lib/src/stm8s_mylib.c: 509: for (uint8_t page = 0; page<8; page++){
      00040F 0F 01            [ 1]  881 	clr	(0x01, sp)
      000411                        882 00111$:
      000411 7B 01            [ 1]  883 	ld	a, (0x01, sp)
      000413 A1 08            [ 1]  884 	cp	a, #0x08
      000415 24 3F            [ 1]  885 	jrnc	00113$
                                    886 ;	lib/src/stm8s_mylib.c: 510: SD1106_sendCom(PAGESTARTADDRESS | page);
      000417 7B 01            [ 1]  887 	ld	a, (0x01, sp)
      000419 AA B0            [ 1]  888 	or	a, #0xb0
      00041B CDr03r6D         [ 4]  889 	call	_SD1106_sendCom
                                    890 ;	lib/src/stm8s_mylib.c: 511: SD1106_sendCom(SETLOWCOLUMN | 2);
      00041E A6 02            [ 1]  891 	ld	a, #0x02
      000420 CDr03r6D         [ 4]  892 	call	_SD1106_sendCom
                                    893 ;	lib/src/stm8s_mylib.c: 512: SD1106_sendCom(SETHIGHCOLUMN | 0);
      000423 A6 10            [ 1]  894 	ld	a, #0x10
      000425 CDr03r6D         [ 4]  895 	call	_SD1106_sendCom
                                    896 ;	lib/src/stm8s_mylib.c: 514: for(uint8_t y=0; y<16; y++){
      000428 0F 02            [ 1]  897 	clr	(0x02, sp)
      00042A                        898 00108$:
      00042A 7B 02            [ 1]  899 	ld	a, (0x02, sp)
      00042C A1 10            [ 1]  900 	cp	a, #0x10
      00042E 24 22            [ 1]  901 	jrnc	00112$
                                    902 ;	lib/src/stm8s_mylib.c: 515: i2c_start();  
      000430 CDr00rF8         [ 4]  903 	call	_i2c_start
                                    904 ;	lib/src/stm8s_mylib.c: 516: i2c_write(OLED_ADDR);
      000433 A6 78            [ 1]  905 	ld	a, #0x78
      000435 CDr01r55         [ 4]  906 	call	_i2c_write
                                    907 ;	lib/src/stm8s_mylib.c: 517: i2c_write(OLED_DAT_MODE);
      000438 A6 40            [ 1]  908 	ld	a, #0x40
      00043A CDr01r55         [ 4]  909 	call	_i2c_write
                                    910 ;	lib/src/stm8s_mylib.c: 518: for (uint8_t w=0; w<8; w++) {
      00043D 4F               [ 1]  911 	clr	a
      00043E                        912 00105$:
      00043E A1 08            [ 1]  913 	cp	a, #0x08
      000440 24 09            [ 1]  914 	jrnc	00101$
                                    915 ;	lib/src/stm8s_mylib.c: 519: i2c_write(0x00); 
      000442 88               [ 1]  916 	push	a
      000443 4F               [ 1]  917 	clr	a
      000444 CDr01r55         [ 4]  918 	call	_i2c_write
      000447 84               [ 1]  919 	pop	a
                                    920 ;	lib/src/stm8s_mylib.c: 518: for (uint8_t w=0; w<8; w++) {
      000448 4C               [ 1]  921 	inc	a
      000449 20 F3            [ 2]  922 	jra	00105$
      00044B                        923 00101$:
                                    924 ;	lib/src/stm8s_mylib.c: 521: i2c_stop();
      00044B CDr01r2D         [ 4]  925 	call	_i2c_stop
                                    926 ;	lib/src/stm8s_mylib.c: 514: for(uint8_t y=0; y<16; y++){
      00044E 0C 02            [ 1]  927 	inc	(0x02, sp)
      000450 20 D8            [ 2]  928 	jra	00108$
      000452                        929 00112$:
                                    930 ;	lib/src/stm8s_mylib.c: 509: for (uint8_t page = 0; page<8; page++){
      000452 0C 01            [ 1]  931 	inc	(0x01, sp)
      000454 20 BB            [ 2]  932 	jra	00111$
      000456                        933 00113$:
                                    934 ;	lib/src/stm8s_mylib.c: 525: }
      000456 5B 02            [ 2]  935 	addw	sp, #2
      000458 81               [ 4]  936 	ret
                                    937 ;	lib/src/stm8s_mylib.c: 526: void SD1106_CUS_PRINT(void){
                                    938 ;	-----------------------------------------
                                    939 ;	 function SD1106_CUS_PRINT
                                    940 ;	-----------------------------------------
      000459                        941 _SD1106_CUS_PRINT:
      000459 52 07            [ 2]  942 	sub	sp, #7
                                    943 ;	lib/src/stm8s_mylib.c: 532: for(uint8_t i=0; i<8;++i){
      00045B 0F 05            [ 1]  944 	clr	(0x05, sp)
      00045D                        945 00109$:
      00045D 7B 05            [ 1]  946 	ld	a, (0x05, sp)
      00045F A1 08            [ 1]  947 	cp	a, #0x08
      000461 24 5B            [ 1]  948 	jrnc	00102$
                                    949 ;	lib/src/stm8s_mylib.c: 533: SD1106_sendCom(PAGESTARTADDRESS | i);
      000463 7B 05            [ 1]  950 	ld	a, (0x05, sp)
      000465 AA B0            [ 1]  951 	or	a, #0xb0
      000467 CDr03r6D         [ 4]  952 	call	_SD1106_sendCom
                                    953 ;	lib/src/stm8s_mylib.c: 534: SD1106_sendCom(SETLOWCOLUMN | 2);
      00046A A6 02            [ 1]  954 	ld	a, #0x02
      00046C CDr03r6D         [ 4]  955 	call	_SD1106_sendCom
                                    956 ;	lib/src/stm8s_mylib.c: 535: SD1106_sendCom(SETHIGHCOLUMN | 0);
      00046F A6 10            [ 1]  957 	ld	a, #0x10
      000471 CDr03r6D         [ 4]  958 	call	_SD1106_sendCom
                                    959 ;	lib/src/stm8s_mylib.c: 537: i2c_start();  
      000474 CDr00rF8         [ 4]  960 	call	_i2c_start
                                    961 ;	lib/src/stm8s_mylib.c: 538: i2c_write(OLED_ADDR);
      000477 A6 78            [ 1]  962 	ld	a, #0x78
      000479 CDr01r55         [ 4]  963 	call	_i2c_write
                                    964 ;	lib/src/stm8s_mylib.c: 539: i2c_write(OLED_DAT_MODE);
      00047C A6 40            [ 1]  965 	ld	a, #0x40
      00047E CDr01r55         [ 4]  966 	call	_i2c_write
                                    967 ;	lib/src/stm8s_mylib.c: 540: for (uint16_t w=i*128; w < (i+1)*128 ; w++) {
      000481 7B 05            [ 1]  968 	ld	a, (0x05, sp)
      000483 6B 02            [ 1]  969 	ld	(0x02, sp), a
      000485 0F 01            [ 1]  970 	clr	(0x01, sp)
      000487 1E 01            [ 2]  971 	ldw	x, (0x01, sp)
      000489 58               [ 2]  972 	sllw	x
      00048A 58               [ 2]  973 	sllw	x
      00048B 58               [ 2]  974 	sllw	x
      00048C 58               [ 2]  975 	sllw	x
      00048D 58               [ 2]  976 	sllw	x
      00048E 58               [ 2]  977 	sllw	x
      00048F 58               [ 2]  978 	sllw	x
      000490 1F 06            [ 2]  979 	ldw	(0x06, sp), x
      000492                        980 00106$:
      000492 1E 01            [ 2]  981 	ldw	x, (0x01, sp)
      000494 5C               [ 1]  982 	incw	x
      000495 58               [ 2]  983 	sllw	x
      000496 58               [ 2]  984 	sllw	x
      000497 58               [ 2]  985 	sllw	x
      000498 58               [ 2]  986 	sllw	x
      000499 58               [ 2]  987 	sllw	x
      00049A 58               [ 2]  988 	sllw	x
      00049B 58               [ 2]  989 	sllw	x
      00049C 16 06            [ 2]  990 	ldw	y, (0x06, sp)
      00049E 1F 03            [ 2]  991 	ldw	(0x03, sp), x
      0004A0 93               [ 1]  992 	ldw	x, y
      0004A1 13 03            [ 2]  993 	cpw	x, (0x03, sp)
      0004A3 24 12            [ 1]  994 	jrnc	00101$
                                    995 ;	lib/src/stm8s_mylib.c: 541: i2c_write(lacoVietNam[w]); 
      0004A5 1E 06            [ 2]  996 	ldw	x, (0x06, sp)
      0004A7 1Cr01r72         [ 2]  997 	addw	x, #(_lacoVietNam+0)
      0004AA 1F 03            [ 2]  998 	ldw	(0x03, sp), x
      0004AC F6               [ 1]  999 	ld	a, (x)
      0004AD CDr01r55         [ 4] 1000 	call	_i2c_write
                                   1001 ;	lib/src/stm8s_mylib.c: 540: for (uint16_t w=i*128; w < (i+1)*128 ; w++) {
      0004B0 1E 06            [ 2] 1002 	ldw	x, (0x06, sp)
      0004B2 5C               [ 1] 1003 	incw	x
      0004B3 1F 06            [ 2] 1004 	ldw	(0x06, sp), x
      0004B5 20 DB            [ 2] 1005 	jra	00106$
      0004B7                       1006 00101$:
                                   1007 ;	lib/src/stm8s_mylib.c: 543: i2c_stop();  
      0004B7 CDr01r2D         [ 4] 1008 	call	_i2c_stop
                                   1009 ;	lib/src/stm8s_mylib.c: 532: for(uint8_t i=0; i<8;++i){
      0004BA 0C 05            [ 1] 1010 	inc	(0x05, sp)
      0004BC 20 9F            [ 2] 1011 	jra	00109$
      0004BE                       1012 00102$:
                                   1013 ;	lib/src/stm8s_mylib.c: 546: delay_ms(2000);
      0004BE AE 07 D0         [ 2] 1014 	ldw	x, #0x07d0
      0004C1 CDr00r95         [ 4] 1015 	call	_delay_ms
                                   1016 ;	lib/src/stm8s_mylib.c: 547: SD1106_clear();
      0004C4 CDr04r0D         [ 4] 1017 	call	_SD1106_clear
                                   1018 ;	lib/src/stm8s_mylib.c: 549: for(uint8_t i=0; i<8;++i){
      0004C7 0F 05            [ 1] 1019 	clr	(0x05, sp)
      0004C9                       1020 00115$:
      0004C9 7B 05            [ 1] 1021 	ld	a, (0x05, sp)
      0004CB A1 08            [ 1] 1022 	cp	a, #0x08
      0004CD 24 55            [ 1] 1023 	jrnc	00104$
                                   1024 ;	lib/src/stm8s_mylib.c: 550: SD1106_sendCom(PAGESTARTADDRESS | i);
      0004CF 7B 05            [ 1] 1025 	ld	a, (0x05, sp)
      0004D1 AA B0            [ 1] 1026 	or	a, #0xb0
      0004D3 CDr03r6D         [ 4] 1027 	call	_SD1106_sendCom
                                   1028 ;	lib/src/stm8s_mylib.c: 551: SD1106_sendCom(SETLOWCOLUMN | (32 & 0xf));
      0004D6 4F               [ 1] 1029 	clr	a
      0004D7 CDr03r6D         [ 4] 1030 	call	_SD1106_sendCom
                                   1031 ;	lib/src/stm8s_mylib.c: 552: SD1106_sendCom(SETHIGHCOLUMN | ( (32 >> 4) & 0xf) );
      0004DA A6 12            [ 1] 1032 	ld	a, #0x12
      0004DC CDr03r6D         [ 4] 1033 	call	_SD1106_sendCom
                                   1034 ;	lib/src/stm8s_mylib.c: 556: i2c_start();  
      0004DF CDr00rF8         [ 4] 1035 	call	_i2c_start
                                   1036 ;	lib/src/stm8s_mylib.c: 557: i2c_write(OLED_ADDR);
      0004E2 A6 78            [ 1] 1037 	ld	a, #0x78
      0004E4 CDr01r55         [ 4] 1038 	call	_i2c_write
                                   1039 ;	lib/src/stm8s_mylib.c: 558: i2c_write(OLED_DAT_MODE);
      0004E7 A6 40            [ 1] 1040 	ld	a, #0x40
      0004E9 CDr01r55         [ 4] 1041 	call	_i2c_write
                                   1042 ;	lib/src/stm8s_mylib.c: 559: for (uint16_t w=i*64; w < (i+1)*64 ; w++) {
      0004EC 7B 05            [ 1] 1043 	ld	a, (0x05, sp)
      0004EE 6B 02            [ 1] 1044 	ld	(0x02, sp), a
      0004F0 0F 01            [ 1] 1045 	clr	(0x01, sp)
      0004F2 1E 01            [ 2] 1046 	ldw	x, (0x01, sp)
      0004F4 58               [ 2] 1047 	sllw	x
      0004F5 58               [ 2] 1048 	sllw	x
      0004F6 58               [ 2] 1049 	sllw	x
      0004F7 58               [ 2] 1050 	sllw	x
      0004F8 58               [ 2] 1051 	sllw	x
      0004F9 58               [ 2] 1052 	sllw	x
      0004FA 1F 06            [ 2] 1053 	ldw	(0x06, sp), x
      0004FC                       1054 00112$:
      0004FC 1E 01            [ 2] 1055 	ldw	x, (0x01, sp)
      0004FE 5C               [ 1] 1056 	incw	x
      0004FF 58               [ 2] 1057 	sllw	x
      000500 58               [ 2] 1058 	sllw	x
      000501 58               [ 2] 1059 	sllw	x
      000502 58               [ 2] 1060 	sllw	x
      000503 58               [ 2] 1061 	sllw	x
      000504 58               [ 2] 1062 	sllw	x
      000505 16 06            [ 2] 1063 	ldw	y, (0x06, sp)
      000507 1F 03            [ 2] 1064 	ldw	(0x03, sp), x
      000509 93               [ 1] 1065 	ldw	x, y
      00050A 13 03            [ 2] 1066 	cpw	x, (0x03, sp)
      00050C 24 0F            [ 1] 1067 	jrnc	00103$
                                   1068 ;	lib/src/stm8s_mylib.c: 560: i2c_write(mixigamingLogo[w]); 
      00050E 1E 06            [ 2] 1069 	ldw	x, (0x06, sp)
      000510 D6u05u72         [ 1] 1070 	ld	a, (_mixigamingLogo+0, x)
      000513 CDr01r55         [ 4] 1071 	call	_i2c_write
                                   1072 ;	lib/src/stm8s_mylib.c: 559: for (uint16_t w=i*64; w < (i+1)*64 ; w++) {
      000516 1E 06            [ 2] 1073 	ldw	x, (0x06, sp)
      000518 5C               [ 1] 1074 	incw	x
      000519 1F 06            [ 2] 1075 	ldw	(0x06, sp), x
      00051B 20 DF            [ 2] 1076 	jra	00112$
      00051D                       1077 00103$:
                                   1078 ;	lib/src/stm8s_mylib.c: 562: i2c_stop();   
      00051D CDr01r2D         [ 4] 1079 	call	_i2c_stop
                                   1080 ;	lib/src/stm8s_mylib.c: 549: for(uint8_t i=0; i<8;++i){
      000520 0C 05            [ 1] 1081 	inc	(0x05, sp)
      000522 20 A5            [ 2] 1082 	jra	00115$
      000524                       1083 00104$:
                                   1084 ;	lib/src/stm8s_mylib.c: 565: delay_ms(1000);
      000524 AE 03 E8         [ 2] 1085 	ldw	x, #0x03e8
      000527 CDr00r95         [ 4] 1086 	call	_delay_ms
                                   1087 ;	lib/src/stm8s_mylib.c: 566: SD1106_clear();
      00052A 5B 07            [ 2] 1088 	addw	sp, #7
                                   1089 ;	lib/src/stm8s_mylib.c: 568: }
      00052C CCr04r0D         [ 2] 1090 	jp	_SD1106_clear
                                   1091 ;	lib/src/stm8s_mylib.c: 569: void print_levelBAT(uint8_t levelBAT ){
                                   1092 ;	-----------------------------------------
                                   1093 ;	 function print_levelBAT
                                   1094 ;	-----------------------------------------
      00052F                       1095 _print_levelBAT:
      00052F 52 02            [ 2] 1096 	sub	sp, #2
      000531 6B 01            [ 1] 1097 	ld	(0x01, sp), a
                                   1098 ;	lib/src/stm8s_mylib.c: 570: SD1106_sendCom(PAGESTARTADDRESS | 0);
      000533 A6 B0            [ 1] 1099 	ld	a, #0xb0
      000535 CDr03r6D         [ 4] 1100 	call	_SD1106_sendCom
                                   1101 ;	lib/src/stm8s_mylib.c: 571: SD1106_sendCom(SETLOWCOLUMN | (80 & 0xf));
      000538 4F               [ 1] 1102 	clr	a
      000539 CDr03r6D         [ 4] 1103 	call	_SD1106_sendCom
                                   1104 ;	lib/src/stm8s_mylib.c: 572: SD1106_sendCom(SETHIGHCOLUMN | ( (80 >> 4) & 0xf) );
      00053C A6 15            [ 1] 1105 	ld	a, #0x15
      00053E CDr03r6D         [ 4] 1106 	call	_SD1106_sendCom
                                   1107 ;	lib/src/stm8s_mylib.c: 574: i2c_start();  
      000541 CDr00rF8         [ 4] 1108 	call	_i2c_start
                                   1109 ;	lib/src/stm8s_mylib.c: 575: i2c_write(OLED_ADDR);
      000544 A6 78            [ 1] 1110 	ld	a, #0x78
      000546 CDr01r55         [ 4] 1111 	call	_i2c_write
                                   1112 ;	lib/src/stm8s_mylib.c: 576: i2c_write(OLED_DAT_MODE);
      000549 A6 40            [ 1] 1113 	ld	a, #0x40
      00054B CDr01r55         [ 4] 1114 	call	_i2c_write
                                   1115 ;	lib/src/stm8s_mylib.c: 577: if(levelBAT >= 38){
      00054E 7B 01            [ 1] 1116 	ld	a, (0x01, sp)
      000550 A1 26            [ 1] 1117 	cp	a, #0x26
      000552 25 17            [ 1] 1118 	jrc	00118$
                                   1119 ;	lib/src/stm8s_mylib.c: 578: for (uint8_t w=0; w<sizeof(levelBAT_full); w++) {
      000554 0F 02            [ 1] 1120 	clr	(0x02, sp)
      000556                       1121 00107$:
      000556 7B 02            [ 1] 1122 	ld	a, (0x02, sp)
      000558 A1 10            [ 1] 1123 	cp	a, #0x10
      00055A 24 26            [ 1] 1124 	jrnc	00105$
                                   1125 ;	lib/src/stm8s_mylib.c: 579: i2c_write(levelBAT_full[w]); 
      00055C 5F               [ 1] 1126 	clrw	x
      00055D 7B 02            [ 1] 1127 	ld	a, (0x02, sp)
      00055F 97               [ 1] 1128 	ld	xl, a
      000560 1Cr07r72         [ 2] 1129 	addw	x, #(_levelBAT_full+0)
      000563 F6               [ 1] 1130 	ld	a, (x)
      000564 CDr01r55         [ 4] 1131 	call	_i2c_write
                                   1132 ;	lib/src/stm8s_mylib.c: 578: for (uint8_t w=0; w<sizeof(levelBAT_full); w++) {
      000567 0C 02            [ 1] 1133 	inc	(0x02, sp)
      000569 20 EB            [ 2] 1134 	jra	00107$
                                   1135 ;	lib/src/stm8s_mylib.c: 582: for (uint8_t w=0; w<sizeof(levelBAT_Tb); w++) {
      00056B                       1136 00118$:
      00056B 0F 02            [ 1] 1137 	clr	(0x02, sp)
      00056D                       1138 00110$:
      00056D 7B 02            [ 1] 1139 	ld	a, (0x02, sp)
      00056F A1 10            [ 1] 1140 	cp	a, #0x10
      000571 24 0F            [ 1] 1141 	jrnc	00105$
                                   1142 ;	lib/src/stm8s_mylib.c: 583: i2c_write(levelBAT_Tb[w]); 
      000573 5F               [ 1] 1143 	clrw	x
      000574 7B 02            [ 1] 1144 	ld	a, (0x02, sp)
      000576 97               [ 1] 1145 	ld	xl, a
      000577 1Cr07r82         [ 2] 1146 	addw	x, #(_levelBAT_Tb+0)
      00057A F6               [ 1] 1147 	ld	a, (x)
      00057B CDr01r55         [ 4] 1148 	call	_i2c_write
                                   1149 ;	lib/src/stm8s_mylib.c: 582: for (uint8_t w=0; w<sizeof(levelBAT_Tb); w++) {
      00057E 0C 02            [ 1] 1150 	inc	(0x02, sp)
      000580 20 EB            [ 2] 1151 	jra	00110$
      000582                       1152 00105$:
                                   1153 ;	lib/src/stm8s_mylib.c: 586: i2c_stop();
      000582 5B 02            [ 2] 1154 	addw	sp, #2
                                   1155 ;	lib/src/stm8s_mylib.c: 587: }
      000584 CCr01r2D         [ 2] 1156 	jp	_i2c_stop
                                   1157 ;	lib/src/stm8s_mylib.c: 588: void print_rssi(void){
                                   1158 ;	-----------------------------------------
                                   1159 ;	 function print_rssi
                                   1160 ;	-----------------------------------------
      000587                       1161 _print_rssi:
      000587 88               [ 1] 1162 	push	a
                                   1163 ;	lib/src/stm8s_mylib.c: 589: SD1106_sendCom(PAGESTARTADDRESS | 0);
      000588 A6 B0            [ 1] 1164 	ld	a, #0xb0
      00058A CDr03r6D         [ 4] 1165 	call	_SD1106_sendCom
                                   1166 ;	lib/src/stm8s_mylib.c: 590: SD1106_sendCom(SETLOWCOLUMN | 2);
      00058D A6 02            [ 1] 1167 	ld	a, #0x02
      00058F CDr03r6D         [ 4] 1168 	call	_SD1106_sendCom
                                   1169 ;	lib/src/stm8s_mylib.c: 591: SD1106_sendCom(SETHIGHCOLUMN | 0);
      000592 A6 10            [ 1] 1170 	ld	a, #0x10
      000594 CDr03r6D         [ 4] 1171 	call	_SD1106_sendCom
                                   1172 ;	lib/src/stm8s_mylib.c: 593: i2c_start();  
      000597 CDr00rF8         [ 4] 1173 	call	_i2c_start
                                   1174 ;	lib/src/stm8s_mylib.c: 594: i2c_write(OLED_ADDR);
      00059A A6 78            [ 1] 1175 	ld	a, #0x78
      00059C CDr01r55         [ 4] 1176 	call	_i2c_write
                                   1177 ;	lib/src/stm8s_mylib.c: 595: i2c_write(OLED_DAT_MODE);
      00059F A6 40            [ 1] 1178 	ld	a, #0x40
      0005A1 CDr01r55         [ 4] 1179 	call	_i2c_write
                                   1180 ;	lib/src/stm8s_mylib.c: 596: for (uint8_t w=0; w<sizeof(rssi); w++) {
      0005A4 0F 01            [ 1] 1181 	clr	(0x01, sp)
      0005A6                       1182 00103$:
      0005A6 7B 01            [ 1] 1183 	ld	a, (0x01, sp)
      0005A8 A1 10            [ 1] 1184 	cp	a, #0x10
      0005AA 24 0E            [ 1] 1185 	jrnc	00105$
                                   1186 ;	lib/src/stm8s_mylib.c: 597: i2c_write(rssi[w]); 
      0005AC 5F               [ 1] 1187 	clrw	x
      0005AD 7B 01            [ 1] 1188 	ld	a, (0x01, sp)
      0005AF 97               [ 1] 1189 	ld	xl, a
      0005B0 D6u07u92         [ 1] 1190 	ld	a, (_rssi+0, x)
      0005B3 CDr01r55         [ 4] 1191 	call	_i2c_write
                                   1192 ;	lib/src/stm8s_mylib.c: 596: for (uint8_t w=0; w<sizeof(rssi); w++) {
      0005B6 0C 01            [ 1] 1193 	inc	(0x01, sp)
      0005B8 20 EC            [ 2] 1194 	jra	00103$
      0005BA                       1195 00105$:
                                   1196 ;	lib/src/stm8s_mylib.c: 599: }
      0005BA 84               [ 1] 1197 	pop	a
      0005BB 81               [ 4] 1198 	ret
                                   1199 ;	lib/src/stm8s_mylib.c: 600: void station_chanel(void){
                                   1200 ;	-----------------------------------------
                                   1201 ;	 function station_chanel
                                   1202 ;	-----------------------------------------
      0005BC                       1203 _station_chanel:
      0005BC 88               [ 1] 1204 	push	a
                                   1205 ;	lib/src/stm8s_mylib.c: 601: SD1106_sendCom(PAGESTARTADDRESS | 1);
      0005BD A6 B1            [ 1] 1206 	ld	a, #0xb1
      0005BF CDr03r6D         [ 4] 1207 	call	_SD1106_sendCom
                                   1208 ;	lib/src/stm8s_mylib.c: 602: SD1106_sendCom(SETLOWCOLUMN | 2);
      0005C2 A6 02            [ 1] 1209 	ld	a, #0x02
      0005C4 CDr03r6D         [ 4] 1210 	call	_SD1106_sendCom
                                   1211 ;	lib/src/stm8s_mylib.c: 603: SD1106_sendCom(SETHIGHCOLUMN | 0);
      0005C7 A6 10            [ 1] 1212 	ld	a, #0x10
      0005C9 CDr03r6D         [ 4] 1213 	call	_SD1106_sendCom
                                   1214 ;	lib/src/stm8s_mylib.c: 605: i2c_start();  
      0005CC CDr00rF8         [ 4] 1215 	call	_i2c_start
                                   1216 ;	lib/src/stm8s_mylib.c: 606: i2c_write(OLED_ADDR);
      0005CF A6 78            [ 1] 1217 	ld	a, #0x78
      0005D1 CDr01r55         [ 4] 1218 	call	_i2c_write
                                   1219 ;	lib/src/stm8s_mylib.c: 607: i2c_write(OLED_DAT_MODE);
      0005D4 A6 40            [ 1] 1220 	ld	a, #0x40
      0005D6 CDr01r55         [ 4] 1221 	call	_i2c_write
                                   1222 ;	lib/src/stm8s_mylib.c: 608: for (uint8_t w=0; w<sizeof(station_icon); w++) {
      0005D9 0F 01            [ 1] 1223 	clr	(0x01, sp)
      0005DB                       1224 00103$:
      0005DB 7B 01            [ 1] 1225 	ld	a, (0x01, sp)
      0005DD A1 10            [ 1] 1226 	cp	a, #0x10
      0005DF 24 0E            [ 1] 1227 	jrnc	00105$
                                   1228 ;	lib/src/stm8s_mylib.c: 609: i2c_write(station_icon[w]); 
      0005E1 5F               [ 1] 1229 	clrw	x
      0005E2 7B 01            [ 1] 1230 	ld	a, (0x01, sp)
      0005E4 97               [ 1] 1231 	ld	xl, a
      0005E5 D6u07uA2         [ 1] 1232 	ld	a, (_station_icon+0, x)
      0005E8 CDr01r55         [ 4] 1233 	call	_i2c_write
                                   1234 ;	lib/src/stm8s_mylib.c: 608: for (uint8_t w=0; w<sizeof(station_icon); w++) {
      0005EB 0C 01            [ 1] 1235 	inc	(0x01, sp)
      0005ED 20 EC            [ 2] 1236 	jra	00103$
      0005EF                       1237 00105$:
                                   1238 ;	lib/src/stm8s_mylib.c: 611: }
      0005EF 84               [ 1] 1239 	pop	a
      0005F0 81               [ 4] 1240 	ret
                                   1241 ;	lib/src/stm8s_mylib.c: 612: void clock_icon_ds(void){
                                   1242 ;	-----------------------------------------
                                   1243 ;	 function clock_icon_ds
                                   1244 ;	-----------------------------------------
      0005F1                       1245 _clock_icon_ds:
      0005F1 88               [ 1] 1246 	push	a
                                   1247 ;	lib/src/stm8s_mylib.c: 613: SD1106_sendCom(PAGESTARTADDRESS | 1);
      0005F2 A6 B1            [ 1] 1248 	ld	a, #0xb1
      0005F4 CDr03r6D         [ 4] 1249 	call	_SD1106_sendCom
                                   1250 ;	lib/src/stm8s_mylib.c: 614: SD1106_sendCom(SETLOWCOLUMN | (80 & 0xf));
      0005F7 4F               [ 1] 1251 	clr	a
      0005F8 CDr03r6D         [ 4] 1252 	call	_SD1106_sendCom
                                   1253 ;	lib/src/stm8s_mylib.c: 615: SD1106_sendCom(SETHIGHCOLUMN | ( (80 >> 4) & 0xf) );
      0005FB A6 15            [ 1] 1254 	ld	a, #0x15
      0005FD CDr03r6D         [ 4] 1255 	call	_SD1106_sendCom
                                   1256 ;	lib/src/stm8s_mylib.c: 617: i2c_start();  
      000600 CDr00rF8         [ 4] 1257 	call	_i2c_start
                                   1258 ;	lib/src/stm8s_mylib.c: 618: i2c_write(OLED_ADDR);
      000603 A6 78            [ 1] 1259 	ld	a, #0x78
      000605 CDr01r55         [ 4] 1260 	call	_i2c_write
                                   1261 ;	lib/src/stm8s_mylib.c: 619: i2c_write(OLED_DAT_MODE);
      000608 A6 40            [ 1] 1262 	ld	a, #0x40
      00060A CDr01r55         [ 4] 1263 	call	_i2c_write
                                   1264 ;	lib/src/stm8s_mylib.c: 620: for (uint8_t w=0; w<sizeof(clock_icon); w++) {
      00060D 0F 01            [ 1] 1265 	clr	(0x01, sp)
      00060F                       1266 00103$:
      00060F 7B 01            [ 1] 1267 	ld	a, (0x01, sp)
      000611 A1 10            [ 1] 1268 	cp	a, #0x10
      000613 24 0E            [ 1] 1269 	jrnc	00105$
                                   1270 ;	lib/src/stm8s_mylib.c: 621: i2c_write(clock_icon[w]); 
      000615 5F               [ 1] 1271 	clrw	x
      000616 7B 01            [ 1] 1272 	ld	a, (0x01, sp)
      000618 97               [ 1] 1273 	ld	xl, a
      000619 D6u07uB2         [ 1] 1274 	ld	a, (_clock_icon+0, x)
      00061C CDr01r55         [ 4] 1275 	call	_i2c_write
                                   1276 ;	lib/src/stm8s_mylib.c: 620: for (uint8_t w=0; w<sizeof(clock_icon); w++) {
      00061F 0C 01            [ 1] 1277 	inc	(0x01, sp)
      000621 20 EC            [ 2] 1278 	jra	00103$
      000623                       1279 00105$:
                                   1280 ;	lib/src/stm8s_mylib.c: 623: }
      000623 84               [ 1] 1281 	pop	a
      000624 81               [ 4] 1282 	ret
                                   1283 ;	lib/src/stm8s_mylib.c: 624: void SD1106_setContranst(char constrast)
                                   1284 ;	-----------------------------------------
                                   1285 ;	 function SD1106_setContranst
                                   1286 ;	-----------------------------------------
      000625                       1287 _SD1106_setContranst:
                                   1288 ;	lib/src/stm8s_mylib.c: 626: SD1106_sendCom(0x81);
      000625 88               [ 1] 1289 	push	a
      000626 A6 81            [ 1] 1290 	ld	a, #0x81
      000628 CDr03r6D         [ 4] 1291 	call	_SD1106_sendCom
      00062B 84               [ 1] 1292 	pop	a
                                   1293 ;	lib/src/stm8s_mylib.c: 627: SD1106_sendCom(constrast);
                                   1294 ;	lib/src/stm8s_mylib.c: 628: }
      00062C CCr03r6D         [ 2] 1295 	jp	_SD1106_sendCom
                                   1296 ;	lib/src/stm8s_mylib.c: 629: void SD1106_resetDis(void)
                                   1297 ;	-----------------------------------------
                                   1298 ;	 function SD1106_resetDis
                                   1299 ;	-----------------------------------------
      00062F                       1300 _SD1106_resetDis:
                                   1301 ;	lib/src/stm8s_mylib.c: 631: SD1106_sendCom(0xAE);   //OLED Off
      00062F A6 AE            [ 1] 1302 	ld	a, #0xae
      000631 CDr03r6D         [ 4] 1303 	call	_SD1106_sendCom
                                   1304 ;	lib/src/stm8s_mylib.c: 632: SD1106_clear();
      000634 CDr04r0D         [ 4] 1305 	call	_SD1106_clear
                                   1306 ;	lib/src/stm8s_mylib.c: 633: SD1106_sendCom(0xAF);   ////OLED On
      000637 A6 AF            [ 1] 1307 	ld	a, #0xaf
                                   1308 ;	lib/src/stm8s_mylib.c: 634: }
      000639 CCr03r6D         [ 2] 1309 	jp	_SD1106_sendCom
                                   1310 ;	lib/src/stm8s_mylib.c: 635: void SD1106_flipScreen(void)
                                   1311 ;	-----------------------------------------
                                   1312 ;	 function SD1106_flipScreen
                                   1313 ;	-----------------------------------------
      00063C                       1314 _SD1106_flipScreen:
                                   1315 ;	lib/src/stm8s_mylib.c: 637: SD1106_sendCom(0xA0);   //le trai hay phai
      00063C A6 A0            [ 1] 1316 	ld	a, #0xa0
      00063E CDr03r6D         [ 4] 1317 	call	_SD1106_sendCom
                                   1318 ;	lib/src/stm8s_mylib.c: 638: SD1106_sendCom(SETCOMPINS);
      000641 A6 DA            [ 1] 1319 	ld	a, #0xda
      000643 CDr03r6D         [ 4] 1320 	call	_SD1106_sendCom
                                   1321 ;	lib/src/stm8s_mylib.c: 639: SD1106_sendCom(0x22);
      000646 A6 22            [ 1] 1322 	ld	a, #0x22
      000648 CDr03r6D         [ 4] 1323 	call	_SD1106_sendCom
                                   1324 ;	lib/src/stm8s_mylib.c: 640: SD1106_sendCom(COMSCANINC);
      00064B A6 C0            [ 1] 1325 	ld	a, #0xc0
                                   1326 ;	lib/src/stm8s_mylib.c: 641: }
      00064D CCr03r6D         [ 2] 1327 	jp	_SD1106_sendCom
                                   1328 ;	lib/src/stm8s_mylib.c: 643: void SD1106_printP(char* p, uint8_t PAGES, uint8_t Column)
                                   1329 ;	-----------------------------------------
                                   1330 ;	 function SD1106_printP
                                   1331 ;	-----------------------------------------
      000650                       1332 _SD1106_printP:
      000650 52 07            [ 2] 1333 	sub	sp, #7
      000652 1F 03            [ 2] 1334 	ldw	(0x03, sp), x
                                   1335 ;	lib/src/stm8s_mylib.c: 645: SD1106_sendCom(PAGESTARTADDRESS | PAGES);
      000654 AA B0            [ 1] 1336 	or	a, #0xb0
      000656 CDr03r6D         [ 4] 1337 	call	_SD1106_sendCom
                                   1338 ;	lib/src/stm8s_mylib.c: 646: SD1106_sendCom(SETLOWCOLUMN | (Column & 0xf));
      000659 7B 0A            [ 1] 1339 	ld	a, (0x0a, sp)
      00065B 6B 07            [ 1] 1340 	ld	(0x07, sp), a
      00065D A4 0F            [ 1] 1341 	and	a, #0x0f
      00065F CDr03r6D         [ 4] 1342 	call	_SD1106_sendCom
                                   1343 ;	lib/src/stm8s_mylib.c: 647: SD1106_sendCom(SETHIGHCOLUMN | ( (Column >> 4) & 0xf) );
      000662 7B 07            [ 1] 1344 	ld	a, (0x07, sp)
      000664 4E               [ 1] 1345 	swap	a
      000665 A4 0F            [ 1] 1346 	and	a, #15
      000667 AA 10            [ 1] 1347 	or	a, #0x10
      000669 CDr03r6D         [ 4] 1348 	call	_SD1106_sendCom
                                   1349 ;	lib/src/stm8s_mylib.c: 648: i2c_start();  
      00066C CDr00rF8         [ 4] 1350 	call	_i2c_start
                                   1351 ;	lib/src/stm8s_mylib.c: 649: i2c_write(OLED_ADDR);
      00066F A6 78            [ 1] 1352 	ld	a, #0x78
      000671 CDr01r55         [ 4] 1353 	call	_i2c_write
                                   1354 ;	lib/src/stm8s_mylib.c: 650: i2c_write(OLED_DAT_MODE);
      000674 A6 40            [ 1] 1355 	ld	a, #0x40
      000676 CDr01r55         [ 4] 1356 	call	_i2c_write
                                   1357 ;	lib/src/stm8s_mylib.c: 651: while(*p){
      000679 16 03            [ 2] 1358 	ldw	y, (0x03, sp)
      00067B 17 05            [ 2] 1359 	ldw	(0x05, sp), y
      00067D                       1360 00102$:
      00067D 1E 05            [ 2] 1361 	ldw	x, (0x05, sp)
      00067F F6               [ 1] 1362 	ld	a, (x)
      000680 6B 07            [ 1] 1363 	ld	(0x07, sp), a
      000682 27 35            [ 1] 1364 	jreq	00104$
                                   1365 ;	lib/src/stm8s_mylib.c: 652: uint16_t offset = *p - 32;
      000684 7B 07            [ 1] 1366 	ld	a, (0x07, sp)
      000686 5F               [ 1] 1367 	clrw	x
      000687 97               [ 1] 1368 	ld	xl, a
      000688 1D 00 20         [ 2] 1369 	subw	x, #0x0020
                                   1370 ;	lib/src/stm8s_mylib.c: 653: offset += (offset << 2) ;
      00068B 1F 01            [ 2] 1371 	ldw	(0x01, sp), x
      00068D 58               [ 2] 1372 	sllw	x
      00068E 58               [ 2] 1373 	sllw	x
      00068F 72 FB 01         [ 2] 1374 	addw	x, (0x01, sp)
                                   1375 ;	lib/src/stm8s_mylib.c: 654: i2c_write(0x00);   
      000692 89               [ 2] 1376 	pushw	x
      000693 4F               [ 1] 1377 	clr	a
      000694 CDr01r55         [ 4] 1378 	call	_i2c_write
      000697 85               [ 2] 1379 	popw	x
                                   1380 ;	lib/src/stm8s_mylib.c: 655: for (uint8_t w=0; w<5; w++) {
      000698 0F 07            [ 1] 1381 	clr	(0x07, sp)
      00069A                       1382 00106$:
      00069A 7B 07            [ 1] 1383 	ld	a, (0x07, sp)
      00069C A1 05            [ 1] 1384 	cp	a, #0x05
      00069E 24 12            [ 1] 1385 	jrnc	00101$
                                   1386 ;	lib/src/stm8s_mylib.c: 656: i2c_write(OLED_FONT[offset++]); 
      0006A0 90 93            [ 1] 1387 	ldw	y, x
      0006A2 72 A9r00r00      [ 2] 1388 	addw	y, #(_OLED_FONT+0)
      0006A6 5C               [ 1] 1389 	incw	x
      0006A7 90 F6            [ 1] 1390 	ld	a, (y)
      0006A9 89               [ 2] 1391 	pushw	x
      0006AA CDr01r55         [ 4] 1392 	call	_i2c_write
      0006AD 85               [ 2] 1393 	popw	x
                                   1394 ;	lib/src/stm8s_mylib.c: 655: for (uint8_t w=0; w<5; w++) {
      0006AE 0C 07            [ 1] 1395 	inc	(0x07, sp)
      0006B0 20 E8            [ 2] 1396 	jra	00106$
      0006B2                       1397 00101$:
                                   1398 ;	lib/src/stm8s_mylib.c: 658: p++;    
      0006B2 1E 05            [ 2] 1399 	ldw	x, (0x05, sp)
      0006B4 5C               [ 1] 1400 	incw	x
      0006B5 1F 05            [ 2] 1401 	ldw	(0x05, sp), x
      0006B7 20 C4            [ 2] 1402 	jra	00102$
      0006B9                       1403 00104$:
                                   1404 ;	lib/src/stm8s_mylib.c: 660: i2c_stop();
      0006B9 1E 08            [ 2] 1405 	ldw	x, (8, sp)
      0006BB 1F 09            [ 2] 1406 	ldw	(9, sp), x
      0006BD 5B 08            [ 2] 1407 	addw	sp, #8
                                   1408 ;	lib/src/stm8s_mylib.c: 661: }
      0006BF CCr01r2D         [ 2] 1409 	jp	_i2c_stop
      0006C2 84               [ 1] 1410 	pop	a
      0006C3 FC               [ 2] 1411 	jp	(x)
                                   1412 ;	lib/src/stm8s_mylib.c: 662: void SD1106_print_one_num(uint8_t so, uint8_t PAGES, uint8_t Column)
                                   1413 ;	-----------------------------------------
                                   1414 ;	 function SD1106_print_one_num
                                   1415 ;	-----------------------------------------
      0006C4                       1416 _SD1106_print_one_num:
      0006C4 52 04            [ 2] 1417 	sub	sp, #4
      0006C6 6B 03            [ 1] 1418 	ld	(0x03, sp), a
                                   1419 ;	lib/src/stm8s_mylib.c: 664: SD1106_sendCom(PAGESTARTADDRESS | PAGES);
      0006C8 7B 07            [ 1] 1420 	ld	a, (0x07, sp)
      0006CA AA B0            [ 1] 1421 	or	a, #0xb0
      0006CC CDr03r6D         [ 4] 1422 	call	_SD1106_sendCom
                                   1423 ;	lib/src/stm8s_mylib.c: 665: SD1106_sendCom(SETLOWCOLUMN | (Column & 0xf));
      0006CF 7B 08            [ 1] 1424 	ld	a, (0x08, sp)
      0006D1 6B 04            [ 1] 1425 	ld	(0x04, sp), a
      0006D3 A4 0F            [ 1] 1426 	and	a, #0x0f
      0006D5 CDr03r6D         [ 4] 1427 	call	_SD1106_sendCom
                                   1428 ;	lib/src/stm8s_mylib.c: 666: SD1106_sendCom(SETHIGHCOLUMN | ( (Column >> 4) & 0xf) );
      0006D8 7B 04            [ 1] 1429 	ld	a, (0x04, sp)
      0006DA 4E               [ 1] 1430 	swap	a
      0006DB A4 0F            [ 1] 1431 	and	a, #15
      0006DD AA 10            [ 1] 1432 	or	a, #0x10
      0006DF CDr03r6D         [ 4] 1433 	call	_SD1106_sendCom
                                   1434 ;	lib/src/stm8s_mylib.c: 667: i2c_start();
      0006E2 CDr00rF8         [ 4] 1435 	call	_i2c_start
                                   1436 ;	lib/src/stm8s_mylib.c: 668: i2c_write(OLED_ADDR);					// start transmission to OLED
      0006E5 A6 78            [ 1] 1437 	ld	a, #0x78
      0006E7 CDr01r55         [ 4] 1438 	call	_i2c_write
                                   1439 ;	lib/src/stm8s_mylib.c: 669: i2c_write(OLED_DAT_MODE);
      0006EA A6 40            [ 1] 1440 	ld	a, #0x40
      0006EC CDr01r55         [ 4] 1441 	call	_i2c_write
                                   1442 ;	lib/src/stm8s_mylib.c: 670: uint16_t offset = so + 16;					
      0006EF 7B 03            [ 1] 1443 	ld	a, (0x03, sp)
      0006F1 5F               [ 1] 1444 	clrw	x
      0006F2 97               [ 1] 1445 	ld	xl, a
      0006F3 1C 00 10         [ 2] 1446 	addw	x, #0x0010
                                   1447 ;	lib/src/stm8s_mylib.c: 671: offset += offset << 2;					// -> offset = so * 5
      0006F6 1F 01            [ 2] 1448 	ldw	(0x01, sp), x
      0006F8 58               [ 2] 1449 	sllw	x
      0006F9 58               [ 2] 1450 	sllw	x
      0006FA 72 FB 01         [ 2] 1451 	addw	x, (0x01, sp)
                                   1452 ;	lib/src/stm8s_mylib.c: 672: i2c_write(0x00);                       // print spacing between characters
      0006FD 89               [ 2] 1453 	pushw	x
      0006FE 4F               [ 1] 1454 	clr	a
      0006FF CDr01r55         [ 4] 1455 	call	_i2c_write
      000702 85               [ 2] 1456 	popw	x
                                   1457 ;	lib/src/stm8s_mylib.c: 673: for(uint8_t i=5; i; i--) i2c_write(OLED_FONT[offset++]); // print character
      000703 A6 05            [ 1] 1458 	ld	a, #0x05
      000705 6B 04            [ 1] 1459 	ld	(0x04, sp), a
      000707                       1460 00103$:
      000707 0D 04            [ 1] 1461 	tnz	(0x04, sp)
      000709 27 12            [ 1] 1462 	jreq	00101$
      00070B 90 93            [ 1] 1463 	ldw	y, x
      00070D 72 A9r00r00      [ 2] 1464 	addw	y, #(_OLED_FONT+0)
      000711 5C               [ 1] 1465 	incw	x
      000712 90 F6            [ 1] 1466 	ld	a, (y)
      000714 89               [ 2] 1467 	pushw	x
      000715 CDr01r55         [ 4] 1468 	call	_i2c_write
      000718 85               [ 2] 1469 	popw	x
      000719 0A 04            [ 1] 1470 	dec	(0x04, sp)
      00071B 20 EA            [ 2] 1471 	jra	00103$
      00071D                       1472 00101$:
                                   1473 ;	lib/src/stm8s_mylib.c: 674: i2c_stop();
      00071D 1E 05            [ 2] 1474 	ldw	x, (5, sp)
      00071F 1F 07            [ 2] 1475 	ldw	(7, sp), x
      000721 5B 06            [ 2] 1476 	addw	sp, #6
                                   1477 ;	lib/src/stm8s_mylib.c: 675: }
      000723 CCr01r2D         [ 2] 1478 	jp	_i2c_stop
                                   1479 ;	lib/src/stm8s_mylib.c: 676: void SD1106_printNum(unsigned int Number, uint8_t PAGES,  uint8_t Column)
                                   1480 ;	-----------------------------------------
                                   1481 ;	 function SD1106_printNum
                                   1482 ;	-----------------------------------------
      000726                       1483 _SD1106_printNum:
      000726 52 0C            [ 2] 1484 	sub	sp, #12
      000728 1F 09            [ 2] 1485 	ldw	(0x09, sp), x
      00072A 6B 08            [ 1] 1486 	ld	(0x08, sp), a
                                   1487 ;	lib/src/stm8s_mylib.c: 678: unsigned char mang[] = {0, 0, 0, 0, 0};
      00072C 0F 03            [ 1] 1488 	clr	(0x03, sp)
      00072E 0F 04            [ 1] 1489 	clr	(0x04, sp)
      000730 0F 05            [ 1] 1490 	clr	(0x05, sp)
      000732 0F 06            [ 1] 1491 	clr	(0x06, sp)
      000734 0F 07            [ 1] 1492 	clr	(0x07, sp)
                                   1493 ;	lib/src/stm8s_mylib.c: 679: unsigned char count = 0;
      000736 4F               [ 1] 1494 	clr	a
                                   1495 ;	lib/src/stm8s_mylib.c: 681: if (Number == 0)   //In ra so 0 khi Number = 0
      000737 1E 09            [ 2] 1496 	ldw	x, (0x09, sp)
      000739 26 04            [ 1] 1497 	jrne	00117$
                                   1498 ;	lib/src/stm8s_mylib.c: 683: mang[0] = 0;
      00073B 0F 03            [ 1] 1499 	clr	(0x03, sp)
                                   1500 ;	lib/src/stm8s_mylib.c: 684: count = 1;
      00073D A6 01            [ 1] 1501 	ld	a, #0x01
                                   1502 ;	lib/src/stm8s_mylib.c: 686: while (Number != 0)
      00073F                       1503 00117$:
      00073F 6B 0C            [ 1] 1504 	ld	(0x0c, sp), a
      000741                       1505 00103$:
      000741 1E 09            [ 2] 1506 	ldw	x, (0x09, sp)
      000743 27 29            [ 1] 1507 	jreq	00105$
                                   1508 ;	lib/src/stm8s_mylib.c: 688: mang[count] = Number % 10;
      000745 5F               [ 1] 1509 	clrw	x
      000746 7B 0C            [ 1] 1510 	ld	a, (0x0c, sp)
      000748 97               [ 1] 1511 	ld	xl, a
      000749 89               [ 2] 1512 	pushw	x
      00074A 96               [ 1] 1513 	ldw	x, sp
      00074B 1C 00 05         [ 2] 1514 	addw	x, #5
      00074E 72 FB 01         [ 2] 1515 	addw	x, (1, sp)
      000751 1F 03            [ 2] 1516 	ldw	(0x03, sp), x
      000753 5B 02            [ 2] 1517 	addw	sp, #2
      000755 1E 09            [ 2] 1518 	ldw	x, (0x09, sp)
      000757 90 AE 00 0A      [ 2] 1519 	ldw	y, #0x000a
      00075B 65               [ 2] 1520 	divw	x, y
      00075C 90 9F            [ 1] 1521 	ld	a, yl
      00075E 1E 01            [ 2] 1522 	ldw	x, (0x01, sp)
      000760 F7               [ 1] 1523 	ld	(x), a
                                   1524 ;	lib/src/stm8s_mylib.c: 689: Number = Number / 10;
      000761 1E 09            [ 2] 1525 	ldw	x, (0x09, sp)
      000763 90 AE 00 0A      [ 2] 1526 	ldw	y, #0x000a
      000767 65               [ 2] 1527 	divw	x, y
      000768 1F 09            [ 2] 1528 	ldw	(0x09, sp), x
                                   1529 ;	lib/src/stm8s_mylib.c: 690: ++count;
      00076A 0C 0C            [ 1] 1530 	inc	(0x0c, sp)
      00076C 20 D3            [ 2] 1531 	jra	00103$
      00076E                       1532 00105$:
                                   1533 ;	lib/src/stm8s_mylib.c: 692: SD1106_sendCom(PAGESTARTADDRESS | PAGES);
      00076E 7B 08            [ 1] 1534 	ld	a, (0x08, sp)
      000770 AA B0            [ 1] 1535 	or	a, #0xb0
      000772 CDr03r6D         [ 4] 1536 	call	_SD1106_sendCom
                                   1537 ;	lib/src/stm8s_mylib.c: 693: SD1106_sendCom(SETLOWCOLUMN | (Column & 0xf));
      000775 7B 0F            [ 1] 1538 	ld	a, (0x0f, sp)
      000777 6B 0B            [ 1] 1539 	ld	(0x0b, sp), a
      000779 A4 0F            [ 1] 1540 	and	a, #0x0f
      00077B CDr03r6D         [ 4] 1541 	call	_SD1106_sendCom
                                   1542 ;	lib/src/stm8s_mylib.c: 694: SD1106_sendCom(SETHIGHCOLUMN | ( (Column >> 4) & 0xf) );
      00077E 7B 0B            [ 1] 1543 	ld	a, (0x0b, sp)
      000780 4E               [ 1] 1544 	swap	a
      000781 A4 0F            [ 1] 1545 	and	a, #15
      000783 AA 10            [ 1] 1546 	or	a, #0x10
      000785 CDr03r6D         [ 4] 1547 	call	_SD1106_sendCom
                                   1548 ;	lib/src/stm8s_mylib.c: 695: i2c_start();
      000788 CDr00rF8         [ 4] 1549 	call	_i2c_start
                                   1550 ;	lib/src/stm8s_mylib.c: 696: i2c_write(OLED_ADDR);					// start transmission to OLED
      00078B A6 78            [ 1] 1551 	ld	a, #0x78
      00078D CDr01r55         [ 4] 1552 	call	_i2c_write
                                   1553 ;	lib/src/stm8s_mylib.c: 697: i2c_write(OLED_DAT_MODE);
      000790 A6 40            [ 1] 1554 	ld	a, #0x40
      000792 CDr01r55         [ 4] 1555 	call	_i2c_write
                                   1556 ;	lib/src/stm8s_mylib.c: 698: while (count != 0)
      000795 7B 0C            [ 1] 1557 	ld	a, (0x0c, sp)
      000797 6B 0B            [ 1] 1558 	ld	(0x0b, sp), a
      000799                       1559 00107$:
      000799 0D 0B            [ 1] 1560 	tnz	(0x0b, sp)
      00079B 27 43            [ 1] 1561 	jreq	00109$
                                   1562 ;	lib/src/stm8s_mylib.c: 700: offset = mang[count - 1] + 16;
      00079D 7B 0B            [ 1] 1563 	ld	a, (0x0b, sp)
      00079F 4A               [ 1] 1564 	dec	a
      0007A0 6B 02            [ 1] 1565 	ld	(0x02, sp), a
      0007A2 49               [ 1] 1566 	rlc	a
      0007A3 4F               [ 1] 1567 	clr	a
      0007A4 A2 00            [ 1] 1568 	sbc	a, #0x00
      0007A6 6B 01            [ 1] 1569 	ld	(0x01, sp), a
      0007A8 96               [ 1] 1570 	ldw	x, sp
      0007A9 1C 00 03         [ 2] 1571 	addw	x, #3
      0007AC 72 FB 01         [ 2] 1572 	addw	x, (0x01, sp)
      0007AF F6               [ 1] 1573 	ld	a, (x)
      0007B0 5F               [ 1] 1574 	clrw	x
      0007B1 97               [ 1] 1575 	ld	xl, a
      0007B2 1C 00 10         [ 2] 1576 	addw	x, #0x0010
                                   1577 ;	lib/src/stm8s_mylib.c: 701: offset += offset << 2;
      0007B5 1F 01            [ 2] 1578 	ldw	(0x01, sp), x
      0007B7 58               [ 2] 1579 	sllw	x
      0007B8 58               [ 2] 1580 	sllw	x
      0007B9 72 FB 01         [ 2] 1581 	addw	x, (0x01, sp)
                                   1582 ;	lib/src/stm8s_mylib.c: 702: i2c_write(0x00);
      0007BC 89               [ 2] 1583 	pushw	x
      0007BD 4F               [ 1] 1584 	clr	a
      0007BE CDr01r55         [ 4] 1585 	call	_i2c_write
      0007C1 85               [ 2] 1586 	popw	x
                                   1587 ;	lib/src/stm8s_mylib.c: 703: for (unsigned char i = 5; i; i--)
      0007C2 A6 05            [ 1] 1588 	ld	a, #0x05
      0007C4 6B 0C            [ 1] 1589 	ld	(0x0c, sp), a
      0007C6                       1590 00111$:
      0007C6 0D 0C            [ 1] 1591 	tnz	(0x0c, sp)
      0007C8 27 12            [ 1] 1592 	jreq	00106$
                                   1593 ;	lib/src/stm8s_mylib.c: 705: i2c_write(OLED_FONT[offset++]);
      0007CA 90 93            [ 1] 1594 	ldw	y, x
      0007CC 72 A9r00r00      [ 2] 1595 	addw	y, #(_OLED_FONT+0)
      0007D0 5C               [ 1] 1596 	incw	x
      0007D1 90 F6            [ 1] 1597 	ld	a, (y)
      0007D3 89               [ 2] 1598 	pushw	x
      0007D4 CDr01r55         [ 4] 1599 	call	_i2c_write
      0007D7 85               [ 2] 1600 	popw	x
                                   1601 ;	lib/src/stm8s_mylib.c: 703: for (unsigned char i = 5; i; i--)
      0007D8 0A 0C            [ 1] 1602 	dec	(0x0c, sp)
      0007DA 20 EA            [ 2] 1603 	jra	00111$
      0007DC                       1604 00106$:
                                   1605 ;	lib/src/stm8s_mylib.c: 707: --count;
      0007DC 0A 0B            [ 1] 1606 	dec	(0x0b, sp)
      0007DE 20 B9            [ 2] 1607 	jra	00107$
      0007E0                       1608 00109$:
                                   1609 ;	lib/src/stm8s_mylib.c: 709: i2c_stop();
      0007E0 CDr01r2D         [ 4] 1610 	call	_i2c_stop
                                   1611 ;	lib/src/stm8s_mylib.c: 710: }
      0007E3 5B 0C            [ 2] 1612 	addw	sp, #12
      0007E5 85               [ 2] 1613 	popw	x
      0007E6 84               [ 1] 1614 	pop	a
      0007E7 FC               [ 2] 1615 	jp	(x)
                                   1616 ;	lib/src/stm8s_mylib.c: 711: void SD1106_printBigNum(uint8_t Num, uint8_t Column){
                                   1617 ;	-----------------------------------------
                                   1618 ;	 function SD1106_printBigNum
                                   1619 ;	-----------------------------------------
      0007E8                       1620 _SD1106_printBigNum:
      0007E8 52 08            [ 2] 1621 	sub	sp, #8
                                   1622 ;	lib/src/stm8s_mylib.c: 712: uint16_t offset = (Num << 2) + Num;			
      0007EA 6B 08            [ 1] 1623 	ld	(0x08, sp), a
      0007EC 0F 07            [ 1] 1624 	clr	(0x07, sp)
      0007EE 1E 07            [ 2] 1625 	ldw	x, (0x07, sp)
      0007F0 58               [ 2] 1626 	sllw	x
      0007F1 58               [ 2] 1627 	sllw	x
      0007F2 72 FB 07         [ 2] 1628 	addw	x, (0x07, sp)
                                   1629 ;	lib/src/stm8s_mylib.c: 713: for(uint8_t i=3;  i< 8; ++i){
      0007F5 7B 0B            [ 1] 1630 	ld	a, (0x0b, sp)
      0007F7 88               [ 1] 1631 	push	a
      0007F8 A4 0F            [ 1] 1632 	and	a, #0x0f
      0007FA 6B 02            [ 1] 1633 	ld	(0x02, sp), a
      0007FC 84               [ 1] 1634 	pop	a
      0007FD 4E               [ 1] 1635 	swap	a
      0007FE A4 0F            [ 1] 1636 	and	a, #15
      000800 AA 10            [ 1] 1637 	or	a, #0x10
      000802 6B 02            [ 1] 1638 	ld	(0x02, sp), a
      000804 1F 05            [ 2] 1639 	ldw	(0x05, sp), x
      000806 A6 03            [ 1] 1640 	ld	a, #0x03
      000808 6B 07            [ 1] 1641 	ld	(0x07, sp), a
      00080A                       1642 00118$:
      00080A 7B 07            [ 1] 1643 	ld	a, (0x07, sp)
      00080C A1 08            [ 1] 1644 	cp	a, #0x08
      00080E 24 6D            [ 1] 1645 	jrnc	00120$
                                   1646 ;	lib/src/stm8s_mylib.c: 714: SD1106_sendCom(PAGESTARTADDRESS | i);
      000810 7B 07            [ 1] 1647 	ld	a, (0x07, sp)
      000812 AA B0            [ 1] 1648 	or	a, #0xb0
      000814 CDr03r6D         [ 4] 1649 	call	_SD1106_sendCom
                                   1650 ;	lib/src/stm8s_mylib.c: 715: SD1106_sendCom(SETLOWCOLUMN | (Column & 0xf));
      000817 7B 01            [ 1] 1651 	ld	a, (0x01, sp)
      000819 CDr03r6D         [ 4] 1652 	call	_SD1106_sendCom
                                   1653 ;	lib/src/stm8s_mylib.c: 716: SD1106_sendCom(SETHIGHCOLUMN | ( (Column >> 4) & 0xf) );
      00081C 7B 02            [ 1] 1654 	ld	a, (0x02, sp)
      00081E CDr03r6D         [ 4] 1655 	call	_SD1106_sendCom
                                   1656 ;	lib/src/stm8s_mylib.c: 717: i2c_start();
      000821 CDr00rF8         [ 4] 1657 	call	_i2c_start
                                   1658 ;	lib/src/stm8s_mylib.c: 718: i2c_write(OLED_ADDR);					// start transmission to OLED
      000824 A6 78            [ 1] 1659 	ld	a, #0x78
      000826 CDr01r55         [ 4] 1660 	call	_i2c_write
                                   1661 ;	lib/src/stm8s_mylib.c: 719: i2c_write(OLED_DAT_MODE);
      000829 A6 40            [ 1] 1662 	ld	a, #0x40
      00082B CDr01r55         [ 4] 1663 	call	_i2c_write
                                   1664 ;	lib/src/stm8s_mylib.c: 720: for(uint8_t z=0; z<3; ++z){
      00082E 1E 05            [ 2] 1665 	ldw	x, (0x05, sp)
      000830 1Cr01r40         [ 2] 1666 	addw	x, #(_OLED_FONT_BIG+0)
      000833 1F 03            [ 2] 1667 	ldw	(0x03, sp), x
      000835 0F 08            [ 1] 1668 	clr	(0x08, sp)
      000837                       1669 00115$:
      000837 7B 08            [ 1] 1670 	ld	a, (0x08, sp)
      000839 A1 03            [ 1] 1671 	cp	a, #0x03
      00083B 24 34            [ 1] 1672 	jrnc	00106$
                                   1673 ;	lib/src/stm8s_mylib.c: 721: if( ((OLED_FONT_BIG[offset]) >> (2 - z)) & 0b1 ) {
      00083D 1E 03            [ 2] 1674 	ldw	x, (0x03, sp)
      00083F F6               [ 1] 1675 	ld	a, (x)
      000840 97               [ 1] 1676 	ld	xl, a
      000841 A6 02            [ 1] 1677 	ld	a, #0x02
      000843 10 08            [ 1] 1678 	sub	a, (0x08, sp)
      000845 27 06            [ 1] 1679 	jreq	00174$
      000847                       1680 00173$:
      000847 41               [ 1] 1681 	exg	a, xl
      000848 44               [ 1] 1682 	srl	a
      000849 41               [ 1] 1683 	exg	a, xl
      00084A 4A               [ 1] 1684 	dec	a
      00084B 26 FA            [ 1] 1685 	jrne	00173$
      00084D                       1686 00174$:
      00084D 54               [ 2] 1687 	srlw	x
      00084E 24 0F            [ 1] 1688 	jrnc	00128$
                                   1689 ;	lib/src/stm8s_mylib.c: 722: for(uint8_t t=5; t; t--) i2c_write(0xff); // print character
      000850 A6 05            [ 1] 1690 	ld	a, #0x05
      000852                       1691 00109$:
      000852 4D               [ 1] 1692 	tnz	a
      000853 27 18            [ 1] 1693 	jreq	00116$
      000855 88               [ 1] 1694 	push	a
      000856 A6 FF            [ 1] 1695 	ld	a, #0xff
      000858 CDr01r55         [ 4] 1696 	call	_i2c_write
      00085B 84               [ 1] 1697 	pop	a
      00085C 4A               [ 1] 1698 	dec	a
      00085D 20 F3            [ 2] 1699 	jra	00109$
                                   1700 ;	lib/src/stm8s_mylib.c: 724: for(uint8_t t=5; t; t--) i2c_write(0x00); // print character
      00085F                       1701 00128$:
      00085F A6 05            [ 1] 1702 	ld	a, #0x05
      000861                       1703 00112$:
      000861 4D               [ 1] 1704 	tnz	a
      000862 27 09            [ 1] 1705 	jreq	00116$
      000864 88               [ 1] 1706 	push	a
      000865 4F               [ 1] 1707 	clr	a
      000866 CDr01r55         [ 4] 1708 	call	_i2c_write
      000869 84               [ 1] 1709 	pop	a
      00086A 4A               [ 1] 1710 	dec	a
      00086B 20 F4            [ 2] 1711 	jra	00112$
      00086D                       1712 00116$:
                                   1713 ;	lib/src/stm8s_mylib.c: 720: for(uint8_t z=0; z<3; ++z){
      00086D 0C 08            [ 1] 1714 	inc	(0x08, sp)
      00086F 20 C6            [ 2] 1715 	jra	00115$
      000871                       1716 00106$:
                                   1717 ;	lib/src/stm8s_mylib.c: 728: offset++;
      000871 1E 05            [ 2] 1718 	ldw	x, (0x05, sp)
      000873 5C               [ 1] 1719 	incw	x
      000874 1F 05            [ 2] 1720 	ldw	(0x05, sp), x
                                   1721 ;	lib/src/stm8s_mylib.c: 729: i2c_stop();
      000876 CDr01r2D         [ 4] 1722 	call	_i2c_stop
                                   1723 ;	lib/src/stm8s_mylib.c: 713: for(uint8_t i=3;  i< 8; ++i){
      000879 0C 07            [ 1] 1724 	inc	(0x07, sp)
      00087B 20 8D            [ 2] 1725 	jra	00118$
      00087D                       1726 00120$:
                                   1727 ;	lib/src/stm8s_mylib.c: 731: }
      00087D 5B 08            [ 2] 1728 	addw	sp, #8
      00087F 85               [ 2] 1729 	popw	x
      000880 84               [ 1] 1730 	pop	a
      000881 FC               [ 2] 1731 	jp	(x)
                                   1732 ;	lib/src/stm8s_mylib.c: 732: void SD1106_printBigPoint(uint8_t Column){		
                                   1733 ;	-----------------------------------------
                                   1734 ;	 function SD1106_printBigPoint
                                   1735 ;	-----------------------------------------
      000882                       1736 _SD1106_printBigPoint:
      000882 52 04            [ 2] 1737 	sub	sp, #4
                                   1738 ;	lib/src/stm8s_mylib.c: 733: for(uint8_t i=3;  i< 8; ++i){
      000884 88               [ 1] 1739 	push	a
      000885 A4 0F            [ 1] 1740 	and	a, #0x0f
      000887 6B 02            [ 1] 1741 	ld	(0x02, sp), a
      000889 84               [ 1] 1742 	pop	a
      00088A 4E               [ 1] 1743 	swap	a
      00088B A4 0F            [ 1] 1744 	and	a, #15
      00088D AA 10            [ 1] 1745 	or	a, #0x10
      00088F 6B 02            [ 1] 1746 	ld	(0x02, sp), a
      000891 A6 03            [ 1] 1747 	ld	a, #0x03
      000893 6B 04            [ 1] 1748 	ld	(0x04, sp), a
      000895                       1749 00114$:
      000895 7B 04            [ 1] 1750 	ld	a, (0x04, sp)
      000897 A1 08            [ 1] 1751 	cp	a, #0x08
      000899 24 5B            [ 1] 1752 	jrnc	00116$
                                   1753 ;	lib/src/stm8s_mylib.c: 734: SD1106_sendCom(PAGESTARTADDRESS | i);
      00089B 7B 04            [ 1] 1754 	ld	a, (0x04, sp)
      00089D AA B0            [ 1] 1755 	or	a, #0xb0
      00089F CDr03r6D         [ 4] 1756 	call	_SD1106_sendCom
                                   1757 ;	lib/src/stm8s_mylib.c: 735: SD1106_sendCom(SETLOWCOLUMN | (Column & 0xf));
      0008A2 7B 01            [ 1] 1758 	ld	a, (0x01, sp)
      0008A4 CDr03r6D         [ 4] 1759 	call	_SD1106_sendCom
                                   1760 ;	lib/src/stm8s_mylib.c: 736: SD1106_sendCom(SETHIGHCOLUMN | ( (Column >> 4) & 0xf) );
      0008A7 7B 02            [ 1] 1761 	ld	a, (0x02, sp)
      0008A9 CDr03r6D         [ 4] 1762 	call	_SD1106_sendCom
                                   1763 ;	lib/src/stm8s_mylib.c: 737: i2c_start();
      0008AC CDr00rF8         [ 4] 1764 	call	_i2c_start
                                   1765 ;	lib/src/stm8s_mylib.c: 738: i2c_write(OLED_ADDR);					// start transmission to OLED
      0008AF A6 78            [ 1] 1766 	ld	a, #0x78
      0008B1 CDr01r55         [ 4] 1767 	call	_i2c_write
                                   1768 ;	lib/src/stm8s_mylib.c: 739: i2c_write(OLED_DAT_MODE);
      0008B4 A6 40            [ 1] 1769 	ld	a, #0x40
      0008B6 CDr01r55         [ 4] 1770 	call	_i2c_write
                                   1771 ;	lib/src/stm8s_mylib.c: 741: if(i == 4 | i == 6){
      0008B9 7B 04            [ 1] 1772 	ld	a, (0x04, sp)
      0008BB A0 04            [ 1] 1773 	sub	a, #0x04
      0008BD 26 04            [ 1] 1774 	jrne	00158$
      0008BF 4C               [ 1] 1775 	inc	a
      0008C0 6B 03            [ 1] 1776 	ld	(0x03, sp), a
      0008C2 C5                    1777 	.byte 0xc5
      0008C3                       1778 00158$:
      0008C3 0F 03            [ 1] 1779 	clr	(0x03, sp)
      0008C5                       1780 00159$:
      0008C5 7B 04            [ 1] 1781 	ld	a, (0x04, sp)
      0008C7 A0 06            [ 1] 1782 	sub	a, #0x06
      0008C9 26 02            [ 1] 1783 	jrne	00161$
      0008CB 4C               [ 1] 1784 	inc	a
      0008CC 21                    1785 	.byte 0x21
      0008CD                       1786 00161$:
      0008CD 4F               [ 1] 1787 	clr	a
      0008CE                       1788 00162$:
      0008CE 1A 03            [ 1] 1789 	or	a, (0x03, sp)
      0008D0 27 0F            [ 1] 1790 	jreq	00123$
                                   1791 ;	lib/src/stm8s_mylib.c: 742: for(uint8_t t=5; t; t--) i2c_write(0xff); // print character
      0008D2 A6 05            [ 1] 1792 	ld	a, #0x05
      0008D4                       1793 00108$:
      0008D4 4D               [ 1] 1794 	tnz	a
      0008D5 27 18            [ 1] 1795 	jreq	00105$
      0008D7 88               [ 1] 1796 	push	a
      0008D8 A6 FF            [ 1] 1797 	ld	a, #0xff
      0008DA CDr01r55         [ 4] 1798 	call	_i2c_write
      0008DD 84               [ 1] 1799 	pop	a
      0008DE 4A               [ 1] 1800 	dec	a
      0008DF 20 F3            [ 2] 1801 	jra	00108$
                                   1802 ;	lib/src/stm8s_mylib.c: 744: for(uint8_t t=5; t; t--) i2c_write(0x00); // print character
      0008E1                       1803 00123$:
      0008E1 A6 05            [ 1] 1804 	ld	a, #0x05
      0008E3                       1805 00111$:
      0008E3 4D               [ 1] 1806 	tnz	a
      0008E4 27 09            [ 1] 1807 	jreq	00105$
      0008E6 88               [ 1] 1808 	push	a
      0008E7 4F               [ 1] 1809 	clr	a
      0008E8 CDr01r55         [ 4] 1810 	call	_i2c_write
      0008EB 84               [ 1] 1811 	pop	a
      0008EC 4A               [ 1] 1812 	dec	a
      0008ED 20 F4            [ 2] 1813 	jra	00111$
      0008EF                       1814 00105$:
                                   1815 ;	lib/src/stm8s_mylib.c: 746: i2c_stop();
      0008EF CDr01r2D         [ 4] 1816 	call	_i2c_stop
                                   1817 ;	lib/src/stm8s_mylib.c: 733: for(uint8_t i=3;  i< 8; ++i){
      0008F2 0C 04            [ 1] 1818 	inc	(0x04, sp)
      0008F4 20 9F            [ 2] 1819 	jra	00114$
      0008F6                       1820 00116$:
                                   1821 ;	lib/src/stm8s_mylib.c: 748: }
      0008F6 5B 04            [ 2] 1822 	addw	sp, #4
      0008F8 81               [ 4] 1823 	ret
                                   1824 ;	lib/src/stm8s_mylib.c: 750: void SD1106_printBigLine(uint8_t Column){		
                                   1825 ;	-----------------------------------------
                                   1826 ;	 function SD1106_printBigLine
                                   1827 ;	-----------------------------------------
      0008F9                       1828 _SD1106_printBigLine:
      0008F9 52 03            [ 2] 1829 	sub	sp, #3
                                   1830 ;	lib/src/stm8s_mylib.c: 751: for(uint8_t i=3;  i< 8; ++i){
      0008FB 88               [ 1] 1831 	push	a
      0008FC A4 0F            [ 1] 1832 	and	a, #0x0f
      0008FE 6B 02            [ 1] 1833 	ld	(0x02, sp), a
      000900 84               [ 1] 1834 	pop	a
      000901 4E               [ 1] 1835 	swap	a
      000902 A4 0F            [ 1] 1836 	and	a, #15
      000904 AA 10            [ 1] 1837 	or	a, #0x10
      000906 6B 02            [ 1] 1838 	ld	(0x02, sp), a
      000908 A6 03            [ 1] 1839 	ld	a, #0x03
      00090A 6B 03            [ 1] 1840 	ld	(0x03, sp), a
      00090C                       1841 00114$:
      00090C 7B 03            [ 1] 1842 	ld	a, (0x03, sp)
      00090E A1 08            [ 1] 1843 	cp	a, #0x08
      000910 24 48            [ 1] 1844 	jrnc	00116$
                                   1845 ;	lib/src/stm8s_mylib.c: 752: SD1106_sendCom(PAGESTARTADDRESS | i);
      000912 7B 03            [ 1] 1846 	ld	a, (0x03, sp)
      000914 AA B0            [ 1] 1847 	or	a, #0xb0
      000916 CDr03r6D         [ 4] 1848 	call	_SD1106_sendCom
                                   1849 ;	lib/src/stm8s_mylib.c: 753: SD1106_sendCom(SETLOWCOLUMN | (Column & 0xf));
      000919 7B 01            [ 1] 1850 	ld	a, (0x01, sp)
      00091B CDr03r6D         [ 4] 1851 	call	_SD1106_sendCom
                                   1852 ;	lib/src/stm8s_mylib.c: 754: SD1106_sendCom(SETHIGHCOLUMN | ( (Column >> 4) & 0xf) );
      00091E 7B 02            [ 1] 1853 	ld	a, (0x02, sp)
      000920 CDr03r6D         [ 4] 1854 	call	_SD1106_sendCom
                                   1855 ;	lib/src/stm8s_mylib.c: 755: i2c_start();
      000923 CDr00rF8         [ 4] 1856 	call	_i2c_start
                                   1857 ;	lib/src/stm8s_mylib.c: 756: i2c_write(OLED_ADDR);					// start transmission to OLED
      000926 A6 78            [ 1] 1858 	ld	a, #0x78
      000928 CDr01r55         [ 4] 1859 	call	_i2c_write
                                   1860 ;	lib/src/stm8s_mylib.c: 757: i2c_write(OLED_DAT_MODE);
      00092B A6 40            [ 1] 1861 	ld	a, #0x40
      00092D CDr01r55         [ 4] 1862 	call	_i2c_write
                                   1863 ;	lib/src/stm8s_mylib.c: 759: if(i == 5){
      000930 7B 03            [ 1] 1864 	ld	a, (0x03, sp)
      000932 A1 05            [ 1] 1865 	cp	a, #0x05
      000934 26 0F            [ 1] 1866 	jrne	00123$
                                   1867 ;	lib/src/stm8s_mylib.c: 760: for(uint8_t t=5; t; t--) i2c_write(0xff); // print character
      000936 A6 05            [ 1] 1868 	ld	a, #0x05
      000938                       1869 00108$:
      000938 4D               [ 1] 1870 	tnz	a
      000939 27 18            [ 1] 1871 	jreq	00105$
      00093B 88               [ 1] 1872 	push	a
      00093C A6 FF            [ 1] 1873 	ld	a, #0xff
      00093E CDr01r55         [ 4] 1874 	call	_i2c_write
      000941 84               [ 1] 1875 	pop	a
      000942 4A               [ 1] 1876 	dec	a
      000943 20 F3            [ 2] 1877 	jra	00108$
                                   1878 ;	lib/src/stm8s_mylib.c: 762: for(uint8_t t=5; t; t--) i2c_write(0x00); // print character
      000945                       1879 00123$:
      000945 A6 05            [ 1] 1880 	ld	a, #0x05
      000947                       1881 00111$:
      000947 4D               [ 1] 1882 	tnz	a
      000948 27 09            [ 1] 1883 	jreq	00105$
      00094A 88               [ 1] 1884 	push	a
      00094B 4F               [ 1] 1885 	clr	a
      00094C CDr01r55         [ 4] 1886 	call	_i2c_write
      00094F 84               [ 1] 1887 	pop	a
      000950 4A               [ 1] 1888 	dec	a
      000951 20 F4            [ 2] 1889 	jra	00111$
      000953                       1890 00105$:
                                   1891 ;	lib/src/stm8s_mylib.c: 764: i2c_stop();
      000953 CDr01r2D         [ 4] 1892 	call	_i2c_stop
                                   1893 ;	lib/src/stm8s_mylib.c: 751: for(uint8_t i=3;  i< 8; ++i){
      000956 0C 03            [ 1] 1894 	inc	(0x03, sp)
      000958 20 B2            [ 2] 1895 	jra	00114$
      00095A                       1896 00116$:
                                   1897 ;	lib/src/stm8s_mylib.c: 766: }
      00095A 5B 03            [ 2] 1898 	addw	sp, #3
      00095C 81               [ 4] 1899 	ret
                                   1900 	.area CODE
                                   1901 	.area CONST
      000000                       1902 _OLED_FONT:
      000000 00                    1903 	.db #0x00	; 0
      000001 00                    1904 	.db #0x00	; 0
      000002 00                    1905 	.db #0x00	; 0
      000003 00                    1906 	.db #0x00	; 0
      000004 00                    1907 	.db #0x00	; 0
      000005 00                    1908 	.db #0x00	; 0
      000006 00                    1909 	.db #0x00	; 0
      000007 2F                    1910 	.db #0x2f	; 47
      000008 00                    1911 	.db #0x00	; 0
      000009 00                    1912 	.db #0x00	; 0
      00000A 00                    1913 	.db #0x00	; 0
      00000B 07                    1914 	.db #0x07	; 7
      00000C 00                    1915 	.db #0x00	; 0
      00000D 07                    1916 	.db #0x07	; 7
      00000E 00                    1917 	.db #0x00	; 0
      00000F 14                    1918 	.db #0x14	; 20
      000010 7F                    1919 	.db #0x7f	; 127
      000011 14                    1920 	.db #0x14	; 20
      000012 7F                    1921 	.db #0x7f	; 127
      000013 14                    1922 	.db #0x14	; 20
      000014 24                    1923 	.db #0x24	; 36
      000015 2A                    1924 	.db #0x2a	; 42
      000016 7F                    1925 	.db #0x7f	; 127
      000017 2A                    1926 	.db #0x2a	; 42
      000018 12                    1927 	.db #0x12	; 18
      000019 62                    1928 	.db #0x62	; 98	'b'
      00001A 64                    1929 	.db #0x64	; 100	'd'
      00001B 08                    1930 	.db #0x08	; 8
      00001C 13                    1931 	.db #0x13	; 19
      00001D 23                    1932 	.db #0x23	; 35
      00001E 36                    1933 	.db #0x36	; 54	'6'
      00001F 49                    1934 	.db #0x49	; 73	'I'
      000020 55                    1935 	.db #0x55	; 85	'U'
      000021 22                    1936 	.db #0x22	; 34
      000022 50                    1937 	.db #0x50	; 80	'P'
      000023 00                    1938 	.db #0x00	; 0
      000024 05                    1939 	.db #0x05	; 5
      000025 03                    1940 	.db #0x03	; 3
      000026 00                    1941 	.db #0x00	; 0
      000027 00                    1942 	.db #0x00	; 0
      000028 00                    1943 	.db #0x00	; 0
      000029 1C                    1944 	.db #0x1c	; 28
      00002A 22                    1945 	.db #0x22	; 34
      00002B 41                    1946 	.db #0x41	; 65	'A'
      00002C 00                    1947 	.db #0x00	; 0
      00002D 00                    1948 	.db #0x00	; 0
      00002E 41                    1949 	.db #0x41	; 65	'A'
      00002F 22                    1950 	.db #0x22	; 34
      000030 1C                    1951 	.db #0x1c	; 28
      000031 00                    1952 	.db #0x00	; 0
      000032 14                    1953 	.db #0x14	; 20
      000033 08                    1954 	.db #0x08	; 8
      000034 3E                    1955 	.db #0x3e	; 62
      000035 08                    1956 	.db #0x08	; 8
      000036 14                    1957 	.db #0x14	; 20
      000037 08                    1958 	.db #0x08	; 8
      000038 08                    1959 	.db #0x08	; 8
      000039 3E                    1960 	.db #0x3e	; 62
      00003A 08                    1961 	.db #0x08	; 8
      00003B 08                    1962 	.db #0x08	; 8
      00003C 00                    1963 	.db #0x00	; 0
      00003D 00                    1964 	.db #0x00	; 0
      00003E A0                    1965 	.db #0xa0	; 160
      00003F 60                    1966 	.db #0x60	; 96
      000040 00                    1967 	.db #0x00	; 0
      000041 08                    1968 	.db #0x08	; 8
      000042 08                    1969 	.db #0x08	; 8
      000043 08                    1970 	.db #0x08	; 8
      000044 08                    1971 	.db #0x08	; 8
      000045 08                    1972 	.db #0x08	; 8
      000046 00                    1973 	.db #0x00	; 0
      000047 60                    1974 	.db #0x60	; 96
      000048 60                    1975 	.db #0x60	; 96
      000049 00                    1976 	.db #0x00	; 0
      00004A 00                    1977 	.db #0x00	; 0
      00004B 20                    1978 	.db #0x20	; 32
      00004C 10                    1979 	.db #0x10	; 16
      00004D 08                    1980 	.db #0x08	; 8
      00004E 04                    1981 	.db #0x04	; 4
      00004F 02                    1982 	.db #0x02	; 2
      000050 3E                    1983 	.db #0x3e	; 62
      000051 51                    1984 	.db #0x51	; 81	'Q'
      000052 49                    1985 	.db #0x49	; 73	'I'
      000053 45                    1986 	.db #0x45	; 69	'E'
      000054 3E                    1987 	.db #0x3e	; 62
      000055 00                    1988 	.db #0x00	; 0
      000056 42                    1989 	.db #0x42	; 66	'B'
      000057 7F                    1990 	.db #0x7f	; 127
      000058 40                    1991 	.db #0x40	; 64
      000059 00                    1992 	.db #0x00	; 0
      00005A 42                    1993 	.db #0x42	; 66	'B'
      00005B 61                    1994 	.db #0x61	; 97	'a'
      00005C 51                    1995 	.db #0x51	; 81	'Q'
      00005D 49                    1996 	.db #0x49	; 73	'I'
      00005E 46                    1997 	.db #0x46	; 70	'F'
      00005F 21                    1998 	.db #0x21	; 33
      000060 41                    1999 	.db #0x41	; 65	'A'
      000061 45                    2000 	.db #0x45	; 69	'E'
      000062 4B                    2001 	.db #0x4b	; 75	'K'
      000063 31                    2002 	.db #0x31	; 49	'1'
      000064 18                    2003 	.db #0x18	; 24
      000065 14                    2004 	.db #0x14	; 20
      000066 12                    2005 	.db #0x12	; 18
      000067 7F                    2006 	.db #0x7f	; 127
      000068 10                    2007 	.db #0x10	; 16
      000069 27                    2008 	.db #0x27	; 39
      00006A 45                    2009 	.db #0x45	; 69	'E'
      00006B 45                    2010 	.db #0x45	; 69	'E'
      00006C 45                    2011 	.db #0x45	; 69	'E'
      00006D 39                    2012 	.db #0x39	; 57	'9'
      00006E 3C                    2013 	.db #0x3c	; 60
      00006F 4A                    2014 	.db #0x4a	; 74	'J'
      000070 49                    2015 	.db #0x49	; 73	'I'
      000071 49                    2016 	.db #0x49	; 73	'I'
      000072 30                    2017 	.db #0x30	; 48	'0'
      000073 01                    2018 	.db #0x01	; 1
      000074 71                    2019 	.db #0x71	; 113	'q'
      000075 09                    2020 	.db #0x09	; 9
      000076 05                    2021 	.db #0x05	; 5
      000077 03                    2022 	.db #0x03	; 3
      000078 36                    2023 	.db #0x36	; 54	'6'
      000079 49                    2024 	.db #0x49	; 73	'I'
      00007A 49                    2025 	.db #0x49	; 73	'I'
      00007B 49                    2026 	.db #0x49	; 73	'I'
      00007C 36                    2027 	.db #0x36	; 54	'6'
      00007D 06                    2028 	.db #0x06	; 6
      00007E 49                    2029 	.db #0x49	; 73	'I'
      00007F 49                    2030 	.db #0x49	; 73	'I'
      000080 29                    2031 	.db #0x29	; 41
      000081 1E                    2032 	.db #0x1e	; 30
      000082 00                    2033 	.db #0x00	; 0
      000083 36                    2034 	.db #0x36	; 54	'6'
      000084 36                    2035 	.db #0x36	; 54	'6'
      000085 00                    2036 	.db #0x00	; 0
      000086 00                    2037 	.db #0x00	; 0
      000087 00                    2038 	.db #0x00	; 0
      000088 56                    2039 	.db #0x56	; 86	'V'
      000089 36                    2040 	.db #0x36	; 54	'6'
      00008A 00                    2041 	.db #0x00	; 0
      00008B 00                    2042 	.db #0x00	; 0
      00008C 08                    2043 	.db #0x08	; 8
      00008D 14                    2044 	.db #0x14	; 20
      00008E 22                    2045 	.db #0x22	; 34
      00008F 41                    2046 	.db #0x41	; 65	'A'
      000090 00                    2047 	.db #0x00	; 0
      000091 14                    2048 	.db #0x14	; 20
      000092 14                    2049 	.db #0x14	; 20
      000093 14                    2050 	.db #0x14	; 20
      000094 14                    2051 	.db #0x14	; 20
      000095 14                    2052 	.db #0x14	; 20
      000096 00                    2053 	.db #0x00	; 0
      000097 41                    2054 	.db #0x41	; 65	'A'
      000098 22                    2055 	.db #0x22	; 34
      000099 14                    2056 	.db #0x14	; 20
      00009A 08                    2057 	.db #0x08	; 8
      00009B 02                    2058 	.db #0x02	; 2
      00009C 01                    2059 	.db #0x01	; 1
      00009D 51                    2060 	.db #0x51	; 81	'Q'
      00009E 09                    2061 	.db #0x09	; 9
      00009F 06                    2062 	.db #0x06	; 6
      0000A0 32                    2063 	.db #0x32	; 50	'2'
      0000A1 49                    2064 	.db #0x49	; 73	'I'
      0000A2 59                    2065 	.db #0x59	; 89	'Y'
      0000A3 51                    2066 	.db #0x51	; 81	'Q'
      0000A4 3E                    2067 	.db #0x3e	; 62
      0000A5 7C                    2068 	.db #0x7c	; 124
      0000A6 12                    2069 	.db #0x12	; 18
      0000A7 11                    2070 	.db #0x11	; 17
      0000A8 12                    2071 	.db #0x12	; 18
      0000A9 7C                    2072 	.db #0x7c	; 124
      0000AA 7F                    2073 	.db #0x7f	; 127
      0000AB 49                    2074 	.db #0x49	; 73	'I'
      0000AC 49                    2075 	.db #0x49	; 73	'I'
      0000AD 49                    2076 	.db #0x49	; 73	'I'
      0000AE 36                    2077 	.db #0x36	; 54	'6'
      0000AF 3E                    2078 	.db #0x3e	; 62
      0000B0 41                    2079 	.db #0x41	; 65	'A'
      0000B1 41                    2080 	.db #0x41	; 65	'A'
      0000B2 41                    2081 	.db #0x41	; 65	'A'
      0000B3 22                    2082 	.db #0x22	; 34
      0000B4 7F                    2083 	.db #0x7f	; 127
      0000B5 41                    2084 	.db #0x41	; 65	'A'
      0000B6 41                    2085 	.db #0x41	; 65	'A'
      0000B7 22                    2086 	.db #0x22	; 34
      0000B8 1C                    2087 	.db #0x1c	; 28
      0000B9 7F                    2088 	.db #0x7f	; 127
      0000BA 49                    2089 	.db #0x49	; 73	'I'
      0000BB 49                    2090 	.db #0x49	; 73	'I'
      0000BC 49                    2091 	.db #0x49	; 73	'I'
      0000BD 41                    2092 	.db #0x41	; 65	'A'
      0000BE 7F                    2093 	.db #0x7f	; 127
      0000BF 09                    2094 	.db #0x09	; 9
      0000C0 09                    2095 	.db #0x09	; 9
      0000C1 09                    2096 	.db #0x09	; 9
      0000C2 01                    2097 	.db #0x01	; 1
      0000C3 3E                    2098 	.db #0x3e	; 62
      0000C4 41                    2099 	.db #0x41	; 65	'A'
      0000C5 49                    2100 	.db #0x49	; 73	'I'
      0000C6 49                    2101 	.db #0x49	; 73	'I'
      0000C7 7A                    2102 	.db #0x7a	; 122	'z'
      0000C8 7F                    2103 	.db #0x7f	; 127
      0000C9 08                    2104 	.db #0x08	; 8
      0000CA 08                    2105 	.db #0x08	; 8
      0000CB 08                    2106 	.db #0x08	; 8
      0000CC 7F                    2107 	.db #0x7f	; 127
      0000CD 00                    2108 	.db #0x00	; 0
      0000CE 41                    2109 	.db #0x41	; 65	'A'
      0000CF 7F                    2110 	.db #0x7f	; 127
      0000D0 41                    2111 	.db #0x41	; 65	'A'
      0000D1 00                    2112 	.db #0x00	; 0
      0000D2 20                    2113 	.db #0x20	; 32
      0000D3 40                    2114 	.db #0x40	; 64
      0000D4 41                    2115 	.db #0x41	; 65	'A'
      0000D5 3F                    2116 	.db #0x3f	; 63
      0000D6 01                    2117 	.db #0x01	; 1
      0000D7 7F                    2118 	.db #0x7f	; 127
      0000D8 08                    2119 	.db #0x08	; 8
      0000D9 14                    2120 	.db #0x14	; 20
      0000DA 22                    2121 	.db #0x22	; 34
      0000DB 41                    2122 	.db #0x41	; 65	'A'
      0000DC 7F                    2123 	.db #0x7f	; 127
      0000DD 40                    2124 	.db #0x40	; 64
      0000DE 40                    2125 	.db #0x40	; 64
      0000DF 40                    2126 	.db #0x40	; 64
      0000E0 40                    2127 	.db #0x40	; 64
      0000E1 7F                    2128 	.db #0x7f	; 127
      0000E2 02                    2129 	.db #0x02	; 2
      0000E3 0C                    2130 	.db #0x0c	; 12
      0000E4 02                    2131 	.db #0x02	; 2
      0000E5 7F                    2132 	.db #0x7f	; 127
      0000E6 7F                    2133 	.db #0x7f	; 127
      0000E7 04                    2134 	.db #0x04	; 4
      0000E8 08                    2135 	.db #0x08	; 8
      0000E9 10                    2136 	.db #0x10	; 16
      0000EA 7F                    2137 	.db #0x7f	; 127
      0000EB 3E                    2138 	.db #0x3e	; 62
      0000EC 41                    2139 	.db #0x41	; 65	'A'
      0000ED 41                    2140 	.db #0x41	; 65	'A'
      0000EE 41                    2141 	.db #0x41	; 65	'A'
      0000EF 3E                    2142 	.db #0x3e	; 62
      0000F0 7F                    2143 	.db #0x7f	; 127
      0000F1 09                    2144 	.db #0x09	; 9
      0000F2 09                    2145 	.db #0x09	; 9
      0000F3 09                    2146 	.db #0x09	; 9
      0000F4 06                    2147 	.db #0x06	; 6
      0000F5 3E                    2148 	.db #0x3e	; 62
      0000F6 41                    2149 	.db #0x41	; 65	'A'
      0000F7 51                    2150 	.db #0x51	; 81	'Q'
      0000F8 21                    2151 	.db #0x21	; 33
      0000F9 5E                    2152 	.db #0x5e	; 94
      0000FA 7F                    2153 	.db #0x7f	; 127
      0000FB 09                    2154 	.db #0x09	; 9
      0000FC 19                    2155 	.db #0x19	; 25
      0000FD 29                    2156 	.db #0x29	; 41
      0000FE 46                    2157 	.db #0x46	; 70	'F'
      0000FF 46                    2158 	.db #0x46	; 70	'F'
      000100 49                    2159 	.db #0x49	; 73	'I'
      000101 49                    2160 	.db #0x49	; 73	'I'
      000102 49                    2161 	.db #0x49	; 73	'I'
      000103 31                    2162 	.db #0x31	; 49	'1'
      000104 01                    2163 	.db #0x01	; 1
      000105 01                    2164 	.db #0x01	; 1
      000106 7F                    2165 	.db #0x7f	; 127
      000107 01                    2166 	.db #0x01	; 1
      000108 01                    2167 	.db #0x01	; 1
      000109 3F                    2168 	.db #0x3f	; 63
      00010A 40                    2169 	.db #0x40	; 64
      00010B 40                    2170 	.db #0x40	; 64
      00010C 40                    2171 	.db #0x40	; 64
      00010D 3F                    2172 	.db #0x3f	; 63
      00010E 1F                    2173 	.db #0x1f	; 31
      00010F 20                    2174 	.db #0x20	; 32
      000110 40                    2175 	.db #0x40	; 64
      000111 20                    2176 	.db #0x20	; 32
      000112 1F                    2177 	.db #0x1f	; 31
      000113 3F                    2178 	.db #0x3f	; 63
      000114 40                    2179 	.db #0x40	; 64
      000115 38                    2180 	.db #0x38	; 56	'8'
      000116 40                    2181 	.db #0x40	; 64
      000117 3F                    2182 	.db #0x3f	; 63
      000118 63                    2183 	.db #0x63	; 99	'c'
      000119 14                    2184 	.db #0x14	; 20
      00011A 08                    2185 	.db #0x08	; 8
      00011B 14                    2186 	.db #0x14	; 20
      00011C 63                    2187 	.db #0x63	; 99	'c'
      00011D 07                    2188 	.db #0x07	; 7
      00011E 08                    2189 	.db #0x08	; 8
      00011F 70                    2190 	.db #0x70	; 112	'p'
      000120 08                    2191 	.db #0x08	; 8
      000121 07                    2192 	.db #0x07	; 7
      000122 61                    2193 	.db #0x61	; 97	'a'
      000123 51                    2194 	.db #0x51	; 81	'Q'
      000124 49                    2195 	.db #0x49	; 73	'I'
      000125 45                    2196 	.db #0x45	; 69	'E'
      000126 43                    2197 	.db #0x43	; 67	'C'
      000127 00                    2198 	.db #0x00	; 0
      000128 7F                    2199 	.db #0x7f	; 127
      000129 41                    2200 	.db #0x41	; 65	'A'
      00012A 41                    2201 	.db #0x41	; 65	'A'
      00012B 00                    2202 	.db #0x00	; 0
      00012C 02                    2203 	.db #0x02	; 2
      00012D 04                    2204 	.db #0x04	; 4
      00012E 08                    2205 	.db #0x08	; 8
      00012F 10                    2206 	.db #0x10	; 16
      000130 20                    2207 	.db #0x20	; 32
      000131 00                    2208 	.db #0x00	; 0
      000132 41                    2209 	.db #0x41	; 65	'A'
      000133 41                    2210 	.db #0x41	; 65	'A'
      000134 7F                    2211 	.db #0x7f	; 127
      000135 00                    2212 	.db #0x00	; 0
      000136 04                    2213 	.db #0x04	; 4
      000137 02                    2214 	.db #0x02	; 2
      000138 01                    2215 	.db #0x01	; 1
      000139 02                    2216 	.db #0x02	; 2
      00013A 04                    2217 	.db #0x04	; 4
      00013B 40                    2218 	.db #0x40	; 64
      00013C 40                    2219 	.db #0x40	; 64
      00013D 40                    2220 	.db #0x40	; 64
      00013E 40                    2221 	.db #0x40	; 64
      00013F 40                    2222 	.db #0x40	; 64
      000140                       2223 _OLED_FONT_BIG:
      000140 07                    2224 	.db #0x07	; 7
      000141 05                    2225 	.db #0x05	; 5
      000142 05                    2226 	.db #0x05	; 5
      000143 05                    2227 	.db #0x05	; 5
      000144 07                    2228 	.db #0x07	; 7
      000145 01                    2229 	.db #0x01	; 1
      000146 01                    2230 	.db #0x01	; 1
      000147 01                    2231 	.db #0x01	; 1
      000148 01                    2232 	.db #0x01	; 1
      000149 01                    2233 	.db #0x01	; 1
      00014A 07                    2234 	.db #0x07	; 7
      00014B 01                    2235 	.db #0x01	; 1
      00014C 07                    2236 	.db #0x07	; 7
      00014D 04                    2237 	.db #0x04	; 4
      00014E 07                    2238 	.db #0x07	; 7
      00014F 07                    2239 	.db #0x07	; 7
      000150 01                    2240 	.db #0x01	; 1
      000151 07                    2241 	.db #0x07	; 7
      000152 01                    2242 	.db #0x01	; 1
      000153 07                    2243 	.db #0x07	; 7
      000154 05                    2244 	.db #0x05	; 5
      000155 05                    2245 	.db #0x05	; 5
      000156 07                    2246 	.db #0x07	; 7
      000157 01                    2247 	.db #0x01	; 1
      000158 01                    2248 	.db #0x01	; 1
      000159 07                    2249 	.db #0x07	; 7
      00015A 04                    2250 	.db #0x04	; 4
      00015B 07                    2251 	.db #0x07	; 7
      00015C 01                    2252 	.db #0x01	; 1
      00015D 07                    2253 	.db #0x07	; 7
      00015E 07                    2254 	.db #0x07	; 7
      00015F 04                    2255 	.db #0x04	; 4
      000160 07                    2256 	.db #0x07	; 7
      000161 05                    2257 	.db #0x05	; 5
      000162 07                    2258 	.db #0x07	; 7
      000163 07                    2259 	.db #0x07	; 7
      000164 05                    2260 	.db #0x05	; 5
      000165 01                    2261 	.db #0x01	; 1
      000166 01                    2262 	.db #0x01	; 1
      000167 01                    2263 	.db #0x01	; 1
      000168 07                    2264 	.db #0x07	; 7
      000169 05                    2265 	.db #0x05	; 5
      00016A 07                    2266 	.db #0x07	; 7
      00016B 05                    2267 	.db #0x05	; 5
      00016C 07                    2268 	.db #0x07	; 7
      00016D 07                    2269 	.db #0x07	; 7
      00016E 05                    2270 	.db #0x05	; 5
      00016F 07                    2271 	.db #0x07	; 7
      000170 01                    2272 	.db #0x01	; 1
      000171 07                    2273 	.db #0x07	; 7
      000172                       2274 _lacoVietNam:
      000172 FF                    2275 	.db #0xff	; 255
      000173 FF                    2276 	.db #0xff	; 255
      000174 FF                    2277 	.db #0xff	; 255
      000175 FF                    2278 	.db #0xff	; 255
      000176 FF                    2279 	.db #0xff	; 255
      000177 FF                    2280 	.db #0xff	; 255
      000178 FF                    2281 	.db #0xff	; 255
      000179 FF                    2282 	.db #0xff	; 255
      00017A FF                    2283 	.db #0xff	; 255
      00017B FF                    2284 	.db #0xff	; 255
      00017C FF                    2285 	.db #0xff	; 255
      00017D FF                    2286 	.db #0xff	; 255
      00017E FF                    2287 	.db #0xff	; 255
      00017F FF                    2288 	.db #0xff	; 255
      000180 FF                    2289 	.db #0xff	; 255
      000181 FF                    2290 	.db #0xff	; 255
      000182 FF                    2291 	.db #0xff	; 255
      000183 FF                    2292 	.db #0xff	; 255
      000184 FF                    2293 	.db #0xff	; 255
      000185 FF                    2294 	.db #0xff	; 255
      000186 FF                    2295 	.db #0xff	; 255
      000187 FF                    2296 	.db #0xff	; 255
      000188 FF                    2297 	.db #0xff	; 255
      000189 FF                    2298 	.db #0xff	; 255
      00018A FF                    2299 	.db #0xff	; 255
      00018B FF                    2300 	.db #0xff	; 255
      00018C FF                    2301 	.db #0xff	; 255
      00018D FF                    2302 	.db #0xff	; 255
      00018E FF                    2303 	.db #0xff	; 255
      00018F FF                    2304 	.db #0xff	; 255
      000190 FF                    2305 	.db #0xff	; 255
      000191 FF                    2306 	.db #0xff	; 255
      000192 FF                    2307 	.db #0xff	; 255
      000193 FF                    2308 	.db #0xff	; 255
      000194 FF                    2309 	.db #0xff	; 255
      000195 FF                    2310 	.db #0xff	; 255
      000196 FF                    2311 	.db #0xff	; 255
      000197 FF                    2312 	.db #0xff	; 255
      000198 FF                    2313 	.db #0xff	; 255
      000199 FF                    2314 	.db #0xff	; 255
      00019A FF                    2315 	.db #0xff	; 255
      00019B FF                    2316 	.db #0xff	; 255
      00019C FF                    2317 	.db #0xff	; 255
      00019D FF                    2318 	.db #0xff	; 255
      00019E FF                    2319 	.db #0xff	; 255
      00019F FF                    2320 	.db #0xff	; 255
      0001A0 FF                    2321 	.db #0xff	; 255
      0001A1 FF                    2322 	.db #0xff	; 255
      0001A2 FF                    2323 	.db #0xff	; 255
      0001A3 FF                    2324 	.db #0xff	; 255
      0001A4 FF                    2325 	.db #0xff	; 255
      0001A5 FF                    2326 	.db #0xff	; 255
      0001A6 FF                    2327 	.db #0xff	; 255
      0001A7 FF                    2328 	.db #0xff	; 255
      0001A8 FF                    2329 	.db #0xff	; 255
      0001A9 FF                    2330 	.db #0xff	; 255
      0001AA FF                    2331 	.db #0xff	; 255
      0001AB FF                    2332 	.db #0xff	; 255
      0001AC FF                    2333 	.db #0xff	; 255
      0001AD FF                    2334 	.db #0xff	; 255
      0001AE FF                    2335 	.db #0xff	; 255
      0001AF FF                    2336 	.db #0xff	; 255
      0001B0 FF                    2337 	.db #0xff	; 255
      0001B1 FF                    2338 	.db #0xff	; 255
      0001B2 FF                    2339 	.db #0xff	; 255
      0001B3 FF                    2340 	.db #0xff	; 255
      0001B4 FF                    2341 	.db #0xff	; 255
      0001B5 FF                    2342 	.db #0xff	; 255
      0001B6 FF                    2343 	.db #0xff	; 255
      0001B7 FF                    2344 	.db #0xff	; 255
      0001B8 FF                    2345 	.db #0xff	; 255
      0001B9 FF                    2346 	.db #0xff	; 255
      0001BA FF                    2347 	.db #0xff	; 255
      0001BB FF                    2348 	.db #0xff	; 255
      0001BC FF                    2349 	.db #0xff	; 255
      0001BD FF                    2350 	.db #0xff	; 255
      0001BE FF                    2351 	.db #0xff	; 255
      0001BF FF                    2352 	.db #0xff	; 255
      0001C0 FF                    2353 	.db #0xff	; 255
      0001C1 FF                    2354 	.db #0xff	; 255
      0001C2 FF                    2355 	.db #0xff	; 255
      0001C3 FF                    2356 	.db #0xff	; 255
      0001C4 FF                    2357 	.db #0xff	; 255
      0001C5 FF                    2358 	.db #0xff	; 255
      0001C6 FF                    2359 	.db #0xff	; 255
      0001C7 FF                    2360 	.db #0xff	; 255
      0001C8 FF                    2361 	.db #0xff	; 255
      0001C9 FF                    2362 	.db #0xff	; 255
      0001CA FF                    2363 	.db #0xff	; 255
      0001CB FF                    2364 	.db #0xff	; 255
      0001CC FF                    2365 	.db #0xff	; 255
      0001CD FF                    2366 	.db #0xff	; 255
      0001CE FF                    2367 	.db #0xff	; 255
      0001CF FF                    2368 	.db #0xff	; 255
      0001D0 FF                    2369 	.db #0xff	; 255
      0001D1 FF                    2370 	.db #0xff	; 255
      0001D2 FF                    2371 	.db #0xff	; 255
      0001D3 FF                    2372 	.db #0xff	; 255
      0001D4 FF                    2373 	.db #0xff	; 255
      0001D5 FF                    2374 	.db #0xff	; 255
      0001D6 FF                    2375 	.db #0xff	; 255
      0001D7 FF                    2376 	.db #0xff	; 255
      0001D8 FF                    2377 	.db #0xff	; 255
      0001D9 FF                    2378 	.db #0xff	; 255
      0001DA FF                    2379 	.db #0xff	; 255
      0001DB FF                    2380 	.db #0xff	; 255
      0001DC FF                    2381 	.db #0xff	; 255
      0001DD FF                    2382 	.db #0xff	; 255
      0001DE FF                    2383 	.db #0xff	; 255
      0001DF FF                    2384 	.db #0xff	; 255
      0001E0 FF                    2385 	.db #0xff	; 255
      0001E1 FF                    2386 	.db #0xff	; 255
      0001E2 FF                    2387 	.db #0xff	; 255
      0001E3 FF                    2388 	.db #0xff	; 255
      0001E4 FF                    2389 	.db #0xff	; 255
      0001E5 FF                    2390 	.db #0xff	; 255
      0001E6 FF                    2391 	.db #0xff	; 255
      0001E7 FF                    2392 	.db #0xff	; 255
      0001E8 FF                    2393 	.db #0xff	; 255
      0001E9 FF                    2394 	.db #0xff	; 255
      0001EA FF                    2395 	.db #0xff	; 255
      0001EB FF                    2396 	.db #0xff	; 255
      0001EC FF                    2397 	.db #0xff	; 255
      0001ED FF                    2398 	.db #0xff	; 255
      0001EE FF                    2399 	.db #0xff	; 255
      0001EF FF                    2400 	.db #0xff	; 255
      0001F0 FF                    2401 	.db #0xff	; 255
      0001F1 FF                    2402 	.db #0xff	; 255
      0001F2 FF                    2403 	.db #0xff	; 255
      0001F3 FF                    2404 	.db #0xff	; 255
      0001F4 FF                    2405 	.db #0xff	; 255
      0001F5 FF                    2406 	.db #0xff	; 255
      0001F6 FF                    2407 	.db #0xff	; 255
      0001F7 FF                    2408 	.db #0xff	; 255
      0001F8 FF                    2409 	.db #0xff	; 255
      0001F9 FF                    2410 	.db #0xff	; 255
      0001FA FF                    2411 	.db #0xff	; 255
      0001FB FF                    2412 	.db #0xff	; 255
      0001FC FF                    2413 	.db #0xff	; 255
      0001FD FF                    2414 	.db #0xff	; 255
      0001FE FF                    2415 	.db #0xff	; 255
      0001FF FF                    2416 	.db #0xff	; 255
      000200 FF                    2417 	.db #0xff	; 255
      000201 FF                    2418 	.db #0xff	; 255
      000202 FF                    2419 	.db #0xff	; 255
      000203 FF                    2420 	.db #0xff	; 255
      000204 FF                    2421 	.db #0xff	; 255
      000205 FF                    2422 	.db #0xff	; 255
      000206 FF                    2423 	.db #0xff	; 255
      000207 FF                    2424 	.db #0xff	; 255
      000208 FF                    2425 	.db #0xff	; 255
      000209 FF                    2426 	.db #0xff	; 255
      00020A FF                    2427 	.db #0xff	; 255
      00020B FF                    2428 	.db #0xff	; 255
      00020C FF                    2429 	.db #0xff	; 255
      00020D FF                    2430 	.db #0xff	; 255
      00020E FF                    2431 	.db #0xff	; 255
      00020F FF                    2432 	.db #0xff	; 255
      000210 FF                    2433 	.db #0xff	; 255
      000211 FF                    2434 	.db #0xff	; 255
      000212 FF                    2435 	.db #0xff	; 255
      000213 FF                    2436 	.db #0xff	; 255
      000214 FF                    2437 	.db #0xff	; 255
      000215 FF                    2438 	.db #0xff	; 255
      000216 FF                    2439 	.db #0xff	; 255
      000217 FF                    2440 	.db #0xff	; 255
      000218 FF                    2441 	.db #0xff	; 255
      000219 FF                    2442 	.db #0xff	; 255
      00021A FF                    2443 	.db #0xff	; 255
      00021B FF                    2444 	.db #0xff	; 255
      00021C FF                    2445 	.db #0xff	; 255
      00021D FF                    2446 	.db #0xff	; 255
      00021E FF                    2447 	.db #0xff	; 255
      00021F FF                    2448 	.db #0xff	; 255
      000220 FF                    2449 	.db #0xff	; 255
      000221 FF                    2450 	.db #0xff	; 255
      000222 FF                    2451 	.db #0xff	; 255
      000223 FF                    2452 	.db #0xff	; 255
      000224 FF                    2453 	.db #0xff	; 255
      000225 FF                    2454 	.db #0xff	; 255
      000226 FF                    2455 	.db #0xff	; 255
      000227 FF                    2456 	.db #0xff	; 255
      000228 FF                    2457 	.db #0xff	; 255
      000229 FF                    2458 	.db #0xff	; 255
      00022A FF                    2459 	.db #0xff	; 255
      00022B FF                    2460 	.db #0xff	; 255
      00022C FF                    2461 	.db #0xff	; 255
      00022D FF                    2462 	.db #0xff	; 255
      00022E FF                    2463 	.db #0xff	; 255
      00022F FF                    2464 	.db #0xff	; 255
      000230 FF                    2465 	.db #0xff	; 255
      000231 3F                    2466 	.db #0x3f	; 63
      000232 3F                    2467 	.db #0x3f	; 63
      000233 FF                    2468 	.db #0xff	; 255
      000234 FF                    2469 	.db #0xff	; 255
      000235 FF                    2470 	.db #0xff	; 255
      000236 FF                    2471 	.db #0xff	; 255
      000237 FF                    2472 	.db #0xff	; 255
      000238 FF                    2473 	.db #0xff	; 255
      000239 FF                    2474 	.db #0xff	; 255
      00023A FF                    2475 	.db #0xff	; 255
      00023B FF                    2476 	.db #0xff	; 255
      00023C FF                    2477 	.db #0xff	; 255
      00023D FF                    2478 	.db #0xff	; 255
      00023E FF                    2479 	.db #0xff	; 255
      00023F FF                    2480 	.db #0xff	; 255
      000240 FF                    2481 	.db #0xff	; 255
      000241 FF                    2482 	.db #0xff	; 255
      000242 FF                    2483 	.db #0xff	; 255
      000243 FF                    2484 	.db #0xff	; 255
      000244 FF                    2485 	.db #0xff	; 255
      000245 FF                    2486 	.db #0xff	; 255
      000246 FF                    2487 	.db #0xff	; 255
      000247 FF                    2488 	.db #0xff	; 255
      000248 FF                    2489 	.db #0xff	; 255
      000249 FF                    2490 	.db #0xff	; 255
      00024A FF                    2491 	.db #0xff	; 255
      00024B FF                    2492 	.db #0xff	; 255
      00024C FF                    2493 	.db #0xff	; 255
      00024D FF                    2494 	.db #0xff	; 255
      00024E FF                    2495 	.db #0xff	; 255
      00024F FF                    2496 	.db #0xff	; 255
      000250 FF                    2497 	.db #0xff	; 255
      000251 FF                    2498 	.db #0xff	; 255
      000252 FF                    2499 	.db #0xff	; 255
      000253 FF                    2500 	.db #0xff	; 255
      000254 FF                    2501 	.db #0xff	; 255
      000255 FF                    2502 	.db #0xff	; 255
      000256 FF                    2503 	.db #0xff	; 255
      000257 FF                    2504 	.db #0xff	; 255
      000258 FF                    2505 	.db #0xff	; 255
      000259 FF                    2506 	.db #0xff	; 255
      00025A FF                    2507 	.db #0xff	; 255
      00025B FF                    2508 	.db #0xff	; 255
      00025C FF                    2509 	.db #0xff	; 255
      00025D FF                    2510 	.db #0xff	; 255
      00025E FF                    2511 	.db #0xff	; 255
      00025F FF                    2512 	.db #0xff	; 255
      000260 FF                    2513 	.db #0xff	; 255
      000261 FF                    2514 	.db #0xff	; 255
      000262 FF                    2515 	.db #0xff	; 255
      000263 FF                    2516 	.db #0xff	; 255
      000264 FF                    2517 	.db #0xff	; 255
      000265 FF                    2518 	.db #0xff	; 255
      000266 FF                    2519 	.db #0xff	; 255
      000267 FF                    2520 	.db #0xff	; 255
      000268 FF                    2521 	.db #0xff	; 255
      000269 FF                    2522 	.db #0xff	; 255
      00026A FF                    2523 	.db #0xff	; 255
      00026B FF                    2524 	.db #0xff	; 255
      00026C FF                    2525 	.db #0xff	; 255
      00026D FF                    2526 	.db #0xff	; 255
      00026E FF                    2527 	.db #0xff	; 255
      00026F FF                    2528 	.db #0xff	; 255
      000270 FF                    2529 	.db #0xff	; 255
      000271 FF                    2530 	.db #0xff	; 255
      000272 FF                    2531 	.db #0xff	; 255
      000273 FF                    2532 	.db #0xff	; 255
      000274 FF                    2533 	.db #0xff	; 255
      000275 FF                    2534 	.db #0xff	; 255
      000276 FF                    2535 	.db #0xff	; 255
      000277 FF                    2536 	.db #0xff	; 255
      000278 FF                    2537 	.db #0xff	; 255
      000279 FF                    2538 	.db #0xff	; 255
      00027A FF                    2539 	.db #0xff	; 255
      00027B FF                    2540 	.db #0xff	; 255
      00027C FF                    2541 	.db #0xff	; 255
      00027D FF                    2542 	.db #0xff	; 255
      00027E FF                    2543 	.db #0xff	; 255
      00027F FF                    2544 	.db #0xff	; 255
      000280 FF                    2545 	.db #0xff	; 255
      000281 FF                    2546 	.db #0xff	; 255
      000282 FF                    2547 	.db #0xff	; 255
      000283 FF                    2548 	.db #0xff	; 255
      000284 FF                    2549 	.db #0xff	; 255
      000285 FF                    2550 	.db #0xff	; 255
      000286 FF                    2551 	.db #0xff	; 255
      000287 FF                    2552 	.db #0xff	; 255
      000288 FF                    2553 	.db #0xff	; 255
      000289 FF                    2554 	.db #0xff	; 255
      00028A FF                    2555 	.db #0xff	; 255
      00028B FF                    2556 	.db #0xff	; 255
      00028C FF                    2557 	.db #0xff	; 255
      00028D FF                    2558 	.db #0xff	; 255
      00028E FF                    2559 	.db #0xff	; 255
      00028F FF                    2560 	.db #0xff	; 255
      000290 FF                    2561 	.db #0xff	; 255
      000291 FF                    2562 	.db #0xff	; 255
      000292 FF                    2563 	.db #0xff	; 255
      000293 FF                    2564 	.db #0xff	; 255
      000294 FF                    2565 	.db #0xff	; 255
      000295 FF                    2566 	.db #0xff	; 255
      000296 FF                    2567 	.db #0xff	; 255
      000297 FF                    2568 	.db #0xff	; 255
      000298 FF                    2569 	.db #0xff	; 255
      000299 FF                    2570 	.db #0xff	; 255
      00029A FF                    2571 	.db #0xff	; 255
      00029B FF                    2572 	.db #0xff	; 255
      00029C FF                    2573 	.db #0xff	; 255
      00029D FF                    2574 	.db #0xff	; 255
      00029E FF                    2575 	.db #0xff	; 255
      00029F FF                    2576 	.db #0xff	; 255
      0002A0 FF                    2577 	.db #0xff	; 255
      0002A1 FF                    2578 	.db #0xff	; 255
      0002A2 FF                    2579 	.db #0xff	; 255
      0002A3 FF                    2580 	.db #0xff	; 255
      0002A4 FF                    2581 	.db #0xff	; 255
      0002A5 FF                    2582 	.db #0xff	; 255
      0002A6 FF                    2583 	.db #0xff	; 255
      0002A7 FF                    2584 	.db #0xff	; 255
      0002A8 FF                    2585 	.db #0xff	; 255
      0002A9 FF                    2586 	.db #0xff	; 255
      0002AA FF                    2587 	.db #0xff	; 255
      0002AB FF                    2588 	.db #0xff	; 255
      0002AC FF                    2589 	.db #0xff	; 255
      0002AD 7F                    2590 	.db #0x7f	; 127
      0002AE 1F                    2591 	.db #0x1f	; 31
      0002AF 03                    2592 	.db #0x03	; 3
      0002B0 00                    2593 	.db #0x00	; 0
      0002B1 00                    2594 	.db #0x00	; 0
      0002B2 00                    2595 	.db #0x00	; 0
      0002B3 00                    2596 	.db #0x00	; 0
      0002B4 03                    2597 	.db #0x03	; 3
      0002B5 1F                    2598 	.db #0x1f	; 31
      0002B6 7F                    2599 	.db #0x7f	; 127
      0002B7 FF                    2600 	.db #0xff	; 255
      0002B8 FF                    2601 	.db #0xff	; 255
      0002B9 FF                    2602 	.db #0xff	; 255
      0002BA FF                    2603 	.db #0xff	; 255
      0002BB FF                    2604 	.db #0xff	; 255
      0002BC FF                    2605 	.db #0xff	; 255
      0002BD FF                    2606 	.db #0xff	; 255
      0002BE FF                    2607 	.db #0xff	; 255
      0002BF FF                    2608 	.db #0xff	; 255
      0002C0 FF                    2609 	.db #0xff	; 255
      0002C1 FF                    2610 	.db #0xff	; 255
      0002C2 FF                    2611 	.db #0xff	; 255
      0002C3 FF                    2612 	.db #0xff	; 255
      0002C4 FF                    2613 	.db #0xff	; 255
      0002C5 FF                    2614 	.db #0xff	; 255
      0002C6 FF                    2615 	.db #0xff	; 255
      0002C7 FF                    2616 	.db #0xff	; 255
      0002C8 FF                    2617 	.db #0xff	; 255
      0002C9 FF                    2618 	.db #0xff	; 255
      0002CA FF                    2619 	.db #0xff	; 255
      0002CB FF                    2620 	.db #0xff	; 255
      0002CC FF                    2621 	.db #0xff	; 255
      0002CD FF                    2622 	.db #0xff	; 255
      0002CE FF                    2623 	.db #0xff	; 255
      0002CF FF                    2624 	.db #0xff	; 255
      0002D0 FF                    2625 	.db #0xff	; 255
      0002D1 FF                    2626 	.db #0xff	; 255
      0002D2 FF                    2627 	.db #0xff	; 255
      0002D3 FF                    2628 	.db #0xff	; 255
      0002D4 FF                    2629 	.db #0xff	; 255
      0002D5 FF                    2630 	.db #0xff	; 255
      0002D6 FF                    2631 	.db #0xff	; 255
      0002D7 FF                    2632 	.db #0xff	; 255
      0002D8 FF                    2633 	.db #0xff	; 255
      0002D9 FF                    2634 	.db #0xff	; 255
      0002DA FF                    2635 	.db #0xff	; 255
      0002DB FF                    2636 	.db #0xff	; 255
      0002DC FF                    2637 	.db #0xff	; 255
      0002DD FF                    2638 	.db #0xff	; 255
      0002DE FF                    2639 	.db #0xff	; 255
      0002DF FF                    2640 	.db #0xff	; 255
      0002E0 FF                    2641 	.db #0xff	; 255
      0002E1 FF                    2642 	.db #0xff	; 255
      0002E2 FF                    2643 	.db #0xff	; 255
      0002E3 FF                    2644 	.db #0xff	; 255
      0002E4 FF                    2645 	.db #0xff	; 255
      0002E5 FF                    2646 	.db #0xff	; 255
      0002E6 FF                    2647 	.db #0xff	; 255
      0002E7 FF                    2648 	.db #0xff	; 255
      0002E8 FF                    2649 	.db #0xff	; 255
      0002E9 FF                    2650 	.db #0xff	; 255
      0002EA FF                    2651 	.db #0xff	; 255
      0002EB FF                    2652 	.db #0xff	; 255
      0002EC FF                    2653 	.db #0xff	; 255
      0002ED FF                    2654 	.db #0xff	; 255
      0002EE FF                    2655 	.db #0xff	; 255
      0002EF FF                    2656 	.db #0xff	; 255
      0002F0 FF                    2657 	.db #0xff	; 255
      0002F1 FF                    2658 	.db #0xff	; 255
      0002F2 FF                    2659 	.db #0xff	; 255
      0002F3 FF                    2660 	.db #0xff	; 255
      0002F4 FF                    2661 	.db #0xff	; 255
      0002F5 FF                    2662 	.db #0xff	; 255
      0002F6 FF                    2663 	.db #0xff	; 255
      0002F7 FF                    2664 	.db #0xff	; 255
      0002F8 FF                    2665 	.db #0xff	; 255
      0002F9 FF                    2666 	.db #0xff	; 255
      0002FA FF                    2667 	.db #0xff	; 255
      0002FB FF                    2668 	.db #0xff	; 255
      0002FC FF                    2669 	.db #0xff	; 255
      0002FD FF                    2670 	.db #0xff	; 255
      0002FE FF                    2671 	.db #0xff	; 255
      0002FF FF                    2672 	.db #0xff	; 255
      000300 FF                    2673 	.db #0xff	; 255
      000301 FF                    2674 	.db #0xff	; 255
      000302 FF                    2675 	.db #0xff	; 255
      000303 FF                    2676 	.db #0xff	; 255
      000304 FF                    2677 	.db #0xff	; 255
      000305 FF                    2678 	.db #0xff	; 255
      000306 FF                    2679 	.db #0xff	; 255
      000307 FF                    2680 	.db #0xff	; 255
      000308 FF                    2681 	.db #0xff	; 255
      000309 FF                    2682 	.db #0xff	; 255
      00030A FF                    2683 	.db #0xff	; 255
      00030B FF                    2684 	.db #0xff	; 255
      00030C FF                    2685 	.db #0xff	; 255
      00030D FF                    2686 	.db #0xff	; 255
      00030E FF                    2687 	.db #0xff	; 255
      00030F FF                    2688 	.db #0xff	; 255
      000310 FF                    2689 	.db #0xff	; 255
      000311 FF                    2690 	.db #0xff	; 255
      000312 FF                    2691 	.db #0xff	; 255
      000313 FF                    2692 	.db #0xff	; 255
      000314 FF                    2693 	.db #0xff	; 255
      000315 FF                    2694 	.db #0xff	; 255
      000316 FF                    2695 	.db #0xff	; 255
      000317 FF                    2696 	.db #0xff	; 255
      000318 FF                    2697 	.db #0xff	; 255
      000319 FF                    2698 	.db #0xff	; 255
      00031A FB                    2699 	.db #0xfb	; 251
      00031B FB                    2700 	.db #0xfb	; 251
      00031C F3                    2701 	.db #0xf3	; 243
      00031D F3                    2702 	.db #0xf3	; 243
      00031E E3                    2703 	.db #0xe3	; 227
      00031F E3                    2704 	.db #0xe3	; 227
      000320 C3                    2705 	.db #0xc3	; 195
      000321 C3                    2706 	.db #0xc3	; 195
      000322 83                    2707 	.db #0x83	; 131
      000323 83                    2708 	.db #0x83	; 131
      000324 03                    2709 	.db #0x03	; 3
      000325 03                    2710 	.db #0x03	; 3
      000326 03                    2711 	.db #0x03	; 3
      000327 03                    2712 	.db #0x03	; 3
      000328 03                    2713 	.db #0x03	; 3
      000329 03                    2714 	.db #0x03	; 3
      00032A 03                    2715 	.db #0x03	; 3
      00032B 03                    2716 	.db #0x03	; 3
      00032C 01                    2717 	.db #0x01	; 1
      00032D 00                    2718 	.db #0x00	; 0
      00032E 00                    2719 	.db #0x00	; 0
      00032F 00                    2720 	.db #0x00	; 0
      000330 00                    2721 	.db #0x00	; 0
      000331 00                    2722 	.db #0x00	; 0
      000332 00                    2723 	.db #0x00	; 0
      000333 00                    2724 	.db #0x00	; 0
      000334 00                    2725 	.db #0x00	; 0
      000335 00                    2726 	.db #0x00	; 0
      000336 00                    2727 	.db #0x00	; 0
      000337 01                    2728 	.db #0x01	; 1
      000338 03                    2729 	.db #0x03	; 3
      000339 03                    2730 	.db #0x03	; 3
      00033A 03                    2731 	.db #0x03	; 3
      00033B 03                    2732 	.db #0x03	; 3
      00033C 03                    2733 	.db #0x03	; 3
      00033D 03                    2734 	.db #0x03	; 3
      00033E 03                    2735 	.db #0x03	; 3
      00033F 03                    2736 	.db #0x03	; 3
      000340 83                    2737 	.db #0x83	; 131
      000341 83                    2738 	.db #0x83	; 131
      000342 C3                    2739 	.db #0xc3	; 195
      000343 C3                    2740 	.db #0xc3	; 195
      000344 E3                    2741 	.db #0xe3	; 227
      000345 E3                    2742 	.db #0xe3	; 227
      000346 F3                    2743 	.db #0xf3	; 243
      000347 F3                    2744 	.db #0xf3	; 243
      000348 FB                    2745 	.db #0xfb	; 251
      000349 FB                    2746 	.db #0xfb	; 251
      00034A FF                    2747 	.db #0xff	; 255
      00034B FF                    2748 	.db #0xff	; 255
      00034C FF                    2749 	.db #0xff	; 255
      00034D FF                    2750 	.db #0xff	; 255
      00034E FF                    2751 	.db #0xff	; 255
      00034F FF                    2752 	.db #0xff	; 255
      000350 FF                    2753 	.db #0xff	; 255
      000351 FF                    2754 	.db #0xff	; 255
      000352 FF                    2755 	.db #0xff	; 255
      000353 FF                    2756 	.db #0xff	; 255
      000354 FF                    2757 	.db #0xff	; 255
      000355 FF                    2758 	.db #0xff	; 255
      000356 FF                    2759 	.db #0xff	; 255
      000357 FF                    2760 	.db #0xff	; 255
      000358 FF                    2761 	.db #0xff	; 255
      000359 FF                    2762 	.db #0xff	; 255
      00035A FF                    2763 	.db #0xff	; 255
      00035B FF                    2764 	.db #0xff	; 255
      00035C FF                    2765 	.db #0xff	; 255
      00035D FF                    2766 	.db #0xff	; 255
      00035E FF                    2767 	.db #0xff	; 255
      00035F FF                    2768 	.db #0xff	; 255
      000360 FF                    2769 	.db #0xff	; 255
      000361 FF                    2770 	.db #0xff	; 255
      000362 FF                    2771 	.db #0xff	; 255
      000363 FF                    2772 	.db #0xff	; 255
      000364 FF                    2773 	.db #0xff	; 255
      000365 FF                    2774 	.db #0xff	; 255
      000366 FF                    2775 	.db #0xff	; 255
      000367 FF                    2776 	.db #0xff	; 255
      000368 FF                    2777 	.db #0xff	; 255
      000369 FF                    2778 	.db #0xff	; 255
      00036A FF                    2779 	.db #0xff	; 255
      00036B FF                    2780 	.db #0xff	; 255
      00036C FF                    2781 	.db #0xff	; 255
      00036D FF                    2782 	.db #0xff	; 255
      00036E FF                    2783 	.db #0xff	; 255
      00036F FF                    2784 	.db #0xff	; 255
      000370 FF                    2785 	.db #0xff	; 255
      000371 FF                    2786 	.db #0xff	; 255
      000372 FF                    2787 	.db #0xff	; 255
      000373 FF                    2788 	.db #0xff	; 255
      000374 FF                    2789 	.db #0xff	; 255
      000375 FF                    2790 	.db #0xff	; 255
      000376 FF                    2791 	.db #0xff	; 255
      000377 FF                    2792 	.db #0xff	; 255
      000378 FF                    2793 	.db #0xff	; 255
      000379 FF                    2794 	.db #0xff	; 255
      00037A FF                    2795 	.db #0xff	; 255
      00037B FF                    2796 	.db #0xff	; 255
      00037C FF                    2797 	.db #0xff	; 255
      00037D FF                    2798 	.db #0xff	; 255
      00037E FF                    2799 	.db #0xff	; 255
      00037F FF                    2800 	.db #0xff	; 255
      000380 FF                    2801 	.db #0xff	; 255
      000381 FF                    2802 	.db #0xff	; 255
      000382 FF                    2803 	.db #0xff	; 255
      000383 FF                    2804 	.db #0xff	; 255
      000384 FF                    2805 	.db #0xff	; 255
      000385 FF                    2806 	.db #0xff	; 255
      000386 FF                    2807 	.db #0xff	; 255
      000387 FF                    2808 	.db #0xff	; 255
      000388 FF                    2809 	.db #0xff	; 255
      000389 FF                    2810 	.db #0xff	; 255
      00038A FF                    2811 	.db #0xff	; 255
      00038B FF                    2812 	.db #0xff	; 255
      00038C FF                    2813 	.db #0xff	; 255
      00038D FF                    2814 	.db #0xff	; 255
      00038E FF                    2815 	.db #0xff	; 255
      00038F FF                    2816 	.db #0xff	; 255
      000390 FF                    2817 	.db #0xff	; 255
      000391 FF                    2818 	.db #0xff	; 255
      000392 FF                    2819 	.db #0xff	; 255
      000393 FF                    2820 	.db #0xff	; 255
      000394 FF                    2821 	.db #0xff	; 255
      000395 FF                    2822 	.db #0xff	; 255
      000396 FF                    2823 	.db #0xff	; 255
      000397 FF                    2824 	.db #0xff	; 255
      000398 FF                    2825 	.db #0xff	; 255
      000399 FF                    2826 	.db #0xff	; 255
      00039A FF                    2827 	.db #0xff	; 255
      00039B FF                    2828 	.db #0xff	; 255
      00039C FF                    2829 	.db #0xff	; 255
      00039D FF                    2830 	.db #0xff	; 255
      00039E FF                    2831 	.db #0xff	; 255
      00039F FF                    2832 	.db #0xff	; 255
      0003A0 FF                    2833 	.db #0xff	; 255
      0003A1 FF                    2834 	.db #0xff	; 255
      0003A2 FF                    2835 	.db #0xff	; 255
      0003A3 FF                    2836 	.db #0xff	; 255
      0003A4 FF                    2837 	.db #0xff	; 255
      0003A5 FE                    2838 	.db #0xfe	; 254
      0003A6 7E                    2839 	.db #0x7e	; 126
      0003A7 1C                    2840 	.db #0x1c	; 28
      0003A8 04                    2841 	.db #0x04	; 4
      0003A9 00                    2842 	.db #0x00	; 0
      0003AA 00                    2843 	.db #0x00	; 0
      0003AB 00                    2844 	.db #0x00	; 0
      0003AC 00                    2845 	.db #0x00	; 0
      0003AD 00                    2846 	.db #0x00	; 0
      0003AE 00                    2847 	.db #0x00	; 0
      0003AF 00                    2848 	.db #0x00	; 0
      0003B0 00                    2849 	.db #0x00	; 0
      0003B1 00                    2850 	.db #0x00	; 0
      0003B2 00                    2851 	.db #0x00	; 0
      0003B3 00                    2852 	.db #0x00	; 0
      0003B4 00                    2853 	.db #0x00	; 0
      0003B5 00                    2854 	.db #0x00	; 0
      0003B6 00                    2855 	.db #0x00	; 0
      0003B7 00                    2856 	.db #0x00	; 0
      0003B8 00                    2857 	.db #0x00	; 0
      0003B9 00                    2858 	.db #0x00	; 0
      0003BA 00                    2859 	.db #0x00	; 0
      0003BB 04                    2860 	.db #0x04	; 4
      0003BC 1C                    2861 	.db #0x1c	; 28
      0003BD 7E                    2862 	.db #0x7e	; 126
      0003BE FE                    2863 	.db #0xfe	; 254
      0003BF FF                    2864 	.db #0xff	; 255
      0003C0 FF                    2865 	.db #0xff	; 255
      0003C1 FF                    2866 	.db #0xff	; 255
      0003C2 FF                    2867 	.db #0xff	; 255
      0003C3 FF                    2868 	.db #0xff	; 255
      0003C4 FF                    2869 	.db #0xff	; 255
      0003C5 FF                    2870 	.db #0xff	; 255
      0003C6 FF                    2871 	.db #0xff	; 255
      0003C7 FF                    2872 	.db #0xff	; 255
      0003C8 FF                    2873 	.db #0xff	; 255
      0003C9 FF                    2874 	.db #0xff	; 255
      0003CA FF                    2875 	.db #0xff	; 255
      0003CB FF                    2876 	.db #0xff	; 255
      0003CC FF                    2877 	.db #0xff	; 255
      0003CD FF                    2878 	.db #0xff	; 255
      0003CE FF                    2879 	.db #0xff	; 255
      0003CF FF                    2880 	.db #0xff	; 255
      0003D0 FF                    2881 	.db #0xff	; 255
      0003D1 FF                    2882 	.db #0xff	; 255
      0003D2 FF                    2883 	.db #0xff	; 255
      0003D3 FF                    2884 	.db #0xff	; 255
      0003D4 FF                    2885 	.db #0xff	; 255
      0003D5 FF                    2886 	.db #0xff	; 255
      0003D6 FF                    2887 	.db #0xff	; 255
      0003D7 FF                    2888 	.db #0xff	; 255
      0003D8 FF                    2889 	.db #0xff	; 255
      0003D9 FF                    2890 	.db #0xff	; 255
      0003DA FF                    2891 	.db #0xff	; 255
      0003DB FF                    2892 	.db #0xff	; 255
      0003DC FF                    2893 	.db #0xff	; 255
      0003DD FF                    2894 	.db #0xff	; 255
      0003DE FF                    2895 	.db #0xff	; 255
      0003DF FF                    2896 	.db #0xff	; 255
      0003E0 FF                    2897 	.db #0xff	; 255
      0003E1 FF                    2898 	.db #0xff	; 255
      0003E2 FF                    2899 	.db #0xff	; 255
      0003E3 FF                    2900 	.db #0xff	; 255
      0003E4 FF                    2901 	.db #0xff	; 255
      0003E5 FF                    2902 	.db #0xff	; 255
      0003E6 FF                    2903 	.db #0xff	; 255
      0003E7 FF                    2904 	.db #0xff	; 255
      0003E8 FF                    2905 	.db #0xff	; 255
      0003E9 FF                    2906 	.db #0xff	; 255
      0003EA FF                    2907 	.db #0xff	; 255
      0003EB FF                    2908 	.db #0xff	; 255
      0003EC FF                    2909 	.db #0xff	; 255
      0003ED FF                    2910 	.db #0xff	; 255
      0003EE FF                    2911 	.db #0xff	; 255
      0003EF FF                    2912 	.db #0xff	; 255
      0003F0 FF                    2913 	.db #0xff	; 255
      0003F1 FF                    2914 	.db #0xff	; 255
      0003F2 FF                    2915 	.db #0xff	; 255
      0003F3 FF                    2916 	.db #0xff	; 255
      0003F4 FF                    2917 	.db #0xff	; 255
      0003F5 FF                    2918 	.db #0xff	; 255
      0003F6 FF                    2919 	.db #0xff	; 255
      0003F7 FF                    2920 	.db #0xff	; 255
      0003F8 FF                    2921 	.db #0xff	; 255
      0003F9 FF                    2922 	.db #0xff	; 255
      0003FA FF                    2923 	.db #0xff	; 255
      0003FB FF                    2924 	.db #0xff	; 255
      0003FC FF                    2925 	.db #0xff	; 255
      0003FD FF                    2926 	.db #0xff	; 255
      0003FE FF                    2927 	.db #0xff	; 255
      0003FF FF                    2928 	.db #0xff	; 255
      000400 FF                    2929 	.db #0xff	; 255
      000401 FF                    2930 	.db #0xff	; 255
      000402 FF                    2931 	.db #0xff	; 255
      000403 FF                    2932 	.db #0xff	; 255
      000404 FF                    2933 	.db #0xff	; 255
      000405 FF                    2934 	.db #0xff	; 255
      000406 FF                    2935 	.db #0xff	; 255
      000407 FF                    2936 	.db #0xff	; 255
      000408 FF                    2937 	.db #0xff	; 255
      000409 FF                    2938 	.db #0xff	; 255
      00040A FF                    2939 	.db #0xff	; 255
      00040B FF                    2940 	.db #0xff	; 255
      00040C FF                    2941 	.db #0xff	; 255
      00040D FF                    2942 	.db #0xff	; 255
      00040E FF                    2943 	.db #0xff	; 255
      00040F FF                    2944 	.db #0xff	; 255
      000410 FF                    2945 	.db #0xff	; 255
      000411 FF                    2946 	.db #0xff	; 255
      000412 FF                    2947 	.db #0xff	; 255
      000413 FF                    2948 	.db #0xff	; 255
      000414 FF                    2949 	.db #0xff	; 255
      000415 FF                    2950 	.db #0xff	; 255
      000416 FF                    2951 	.db #0xff	; 255
      000417 FF                    2952 	.db #0xff	; 255
      000418 FF                    2953 	.db #0xff	; 255
      000419 FF                    2954 	.db #0xff	; 255
      00041A FF                    2955 	.db #0xff	; 255
      00041B FF                    2956 	.db #0xff	; 255
      00041C FF                    2957 	.db #0xff	; 255
      00041D FF                    2958 	.db #0xff	; 255
      00041E FF                    2959 	.db #0xff	; 255
      00041F FF                    2960 	.db #0xff	; 255
      000420 FF                    2961 	.db #0xff	; 255
      000421 FF                    2962 	.db #0xff	; 255
      000422 FF                    2963 	.db #0xff	; 255
      000423 BF                    2964 	.db #0xbf	; 191
      000424 8F                    2965 	.db #0x8f	; 143
      000425 C3                    2966 	.db #0xc3	; 195
      000426 C0                    2967 	.db #0xc0	; 192
      000427 E0                    2968 	.db #0xe0	; 224
      000428 E0                    2969 	.db #0xe0	; 224
      000429 F0                    2970 	.db #0xf0	; 240
      00042A F8                    2971 	.db #0xf8	; 248
      00042B F8                    2972 	.db #0xf8	; 248
      00042C FC                    2973 	.db #0xfc	; 252
      00042D FC                    2974 	.db #0xfc	; 252
      00042E FE                    2975 	.db #0xfe	; 254
      00042F FE                    2976 	.db #0xfe	; 254
      000430 FF                    2977 	.db #0xff	; 255
      000431 FF                    2978 	.db #0xff	; 255
      000432 FF                    2979 	.db #0xff	; 255
      000433 FF                    2980 	.db #0xff	; 255
      000434 FE                    2981 	.db #0xfe	; 254
      000435 FE                    2982 	.db #0xfe	; 254
      000436 FC                    2983 	.db #0xfc	; 252
      000437 FC                    2984 	.db #0xfc	; 252
      000438 F8                    2985 	.db #0xf8	; 248
      000439 F8                    2986 	.db #0xf8	; 248
      00043A F0                    2987 	.db #0xf0	; 240
      00043B E0                    2988 	.db #0xe0	; 224
      00043C E0                    2989 	.db #0xe0	; 224
      00043D C0                    2990 	.db #0xc0	; 192
      00043E C3                    2991 	.db #0xc3	; 195
      00043F 8F                    2992 	.db #0x8f	; 143
      000440 BF                    2993 	.db #0xbf	; 191
      000441 FF                    2994 	.db #0xff	; 255
      000442 FF                    2995 	.db #0xff	; 255
      000443 FF                    2996 	.db #0xff	; 255
      000444 FF                    2997 	.db #0xff	; 255
      000445 FF                    2998 	.db #0xff	; 255
      000446 FF                    2999 	.db #0xff	; 255
      000447 FF                    3000 	.db #0xff	; 255
      000448 FF                    3001 	.db #0xff	; 255
      000449 FF                    3002 	.db #0xff	; 255
      00044A FF                    3003 	.db #0xff	; 255
      00044B FF                    3004 	.db #0xff	; 255
      00044C FF                    3005 	.db #0xff	; 255
      00044D FF                    3006 	.db #0xff	; 255
      00044E FF                    3007 	.db #0xff	; 255
      00044F FF                    3008 	.db #0xff	; 255
      000450 FF                    3009 	.db #0xff	; 255
      000451 FF                    3010 	.db #0xff	; 255
      000452 FF                    3011 	.db #0xff	; 255
      000453 FF                    3012 	.db #0xff	; 255
      000454 FF                    3013 	.db #0xff	; 255
      000455 FF                    3014 	.db #0xff	; 255
      000456 FF                    3015 	.db #0xff	; 255
      000457 FF                    3016 	.db #0xff	; 255
      000458 FF                    3017 	.db #0xff	; 255
      000459 FF                    3018 	.db #0xff	; 255
      00045A FF                    3019 	.db #0xff	; 255
      00045B FF                    3020 	.db #0xff	; 255
      00045C FF                    3021 	.db #0xff	; 255
      00045D FF                    3022 	.db #0xff	; 255
      00045E FF                    3023 	.db #0xff	; 255
      00045F FF                    3024 	.db #0xff	; 255
      000460 FF                    3025 	.db #0xff	; 255
      000461 FF                    3026 	.db #0xff	; 255
      000462 FF                    3027 	.db #0xff	; 255
      000463 FF                    3028 	.db #0xff	; 255
      000464 FF                    3029 	.db #0xff	; 255
      000465 FF                    3030 	.db #0xff	; 255
      000466 FF                    3031 	.db #0xff	; 255
      000467 FF                    3032 	.db #0xff	; 255
      000468 FF                    3033 	.db #0xff	; 255
      000469 FF                    3034 	.db #0xff	; 255
      00046A FF                    3035 	.db #0xff	; 255
      00046B FF                    3036 	.db #0xff	; 255
      00046C FF                    3037 	.db #0xff	; 255
      00046D FF                    3038 	.db #0xff	; 255
      00046E FF                    3039 	.db #0xff	; 255
      00046F FF                    3040 	.db #0xff	; 255
      000470 FF                    3041 	.db #0xff	; 255
      000471 FF                    3042 	.db #0xff	; 255
      000472 FF                    3043 	.db #0xff	; 255
      000473 FF                    3044 	.db #0xff	; 255
      000474 FF                    3045 	.db #0xff	; 255
      000475 FF                    3046 	.db #0xff	; 255
      000476 FF                    3047 	.db #0xff	; 255
      000477 FF                    3048 	.db #0xff	; 255
      000478 FF                    3049 	.db #0xff	; 255
      000479 FF                    3050 	.db #0xff	; 255
      00047A FF                    3051 	.db #0xff	; 255
      00047B FF                    3052 	.db #0xff	; 255
      00047C FF                    3053 	.db #0xff	; 255
      00047D FF                    3054 	.db #0xff	; 255
      00047E FF                    3055 	.db #0xff	; 255
      00047F FF                    3056 	.db #0xff	; 255
      000480 FF                    3057 	.db #0xff	; 255
      000481 FF                    3058 	.db #0xff	; 255
      000482 FF                    3059 	.db #0xff	; 255
      000483 FF                    3060 	.db #0xff	; 255
      000484 FF                    3061 	.db #0xff	; 255
      000485 FF                    3062 	.db #0xff	; 255
      000486 FF                    3063 	.db #0xff	; 255
      000487 FF                    3064 	.db #0xff	; 255
      000488 FF                    3065 	.db #0xff	; 255
      000489 FF                    3066 	.db #0xff	; 255
      00048A FF                    3067 	.db #0xff	; 255
      00048B FF                    3068 	.db #0xff	; 255
      00048C FF                    3069 	.db #0xff	; 255
      00048D FF                    3070 	.db #0xff	; 255
      00048E FF                    3071 	.db #0xff	; 255
      00048F FF                    3072 	.db #0xff	; 255
      000490 FF                    3073 	.db #0xff	; 255
      000491 FF                    3074 	.db #0xff	; 255
      000492 FF                    3075 	.db #0xff	; 255
      000493 FF                    3076 	.db #0xff	; 255
      000494 FF                    3077 	.db #0xff	; 255
      000495 FF                    3078 	.db #0xff	; 255
      000496 FF                    3079 	.db #0xff	; 255
      000497 FF                    3080 	.db #0xff	; 255
      000498 FF                    3081 	.db #0xff	; 255
      000499 FF                    3082 	.db #0xff	; 255
      00049A FF                    3083 	.db #0xff	; 255
      00049B FF                    3084 	.db #0xff	; 255
      00049C FF                    3085 	.db #0xff	; 255
      00049D FF                    3086 	.db #0xff	; 255
      00049E FF                    3087 	.db #0xff	; 255
      00049F FF                    3088 	.db #0xff	; 255
      0004A0 FF                    3089 	.db #0xff	; 255
      0004A1 FF                    3090 	.db #0xff	; 255
      0004A2 FF                    3091 	.db #0xff	; 255
      0004A3 FF                    3092 	.db #0xff	; 255
      0004A4 FF                    3093 	.db #0xff	; 255
      0004A5 FF                    3094 	.db #0xff	; 255
      0004A6 FF                    3095 	.db #0xff	; 255
      0004A7 FF                    3096 	.db #0xff	; 255
      0004A8 FF                    3097 	.db #0xff	; 255
      0004A9 FF                    3098 	.db #0xff	; 255
      0004AA FF                    3099 	.db #0xff	; 255
      0004AB FF                    3100 	.db #0xff	; 255
      0004AC FF                    3101 	.db #0xff	; 255
      0004AD FF                    3102 	.db #0xff	; 255
      0004AE FF                    3103 	.db #0xff	; 255
      0004AF FF                    3104 	.db #0xff	; 255
      0004B0 FF                    3105 	.db #0xff	; 255
      0004B1 FF                    3106 	.db #0xff	; 255
      0004B2 FF                    3107 	.db #0xff	; 255
      0004B3 FF                    3108 	.db #0xff	; 255
      0004B4 FF                    3109 	.db #0xff	; 255
      0004B5 FF                    3110 	.db #0xff	; 255
      0004B6 FF                    3111 	.db #0xff	; 255
      0004B7 FF                    3112 	.db #0xff	; 255
      0004B8 FF                    3113 	.db #0xff	; 255
      0004B9 FF                    3114 	.db #0xff	; 255
      0004BA FF                    3115 	.db #0xff	; 255
      0004BB FF                    3116 	.db #0xff	; 255
      0004BC FF                    3117 	.db #0xff	; 255
      0004BD FF                    3118 	.db #0xff	; 255
      0004BE FF                    3119 	.db #0xff	; 255
      0004BF FF                    3120 	.db #0xff	; 255
      0004C0 FF                    3121 	.db #0xff	; 255
      0004C1 FF                    3122 	.db #0xff	; 255
      0004C2 FF                    3123 	.db #0xff	; 255
      0004C3 FF                    3124 	.db #0xff	; 255
      0004C4 FF                    3125 	.db #0xff	; 255
      0004C5 FF                    3126 	.db #0xff	; 255
      0004C6 FF                    3127 	.db #0xff	; 255
      0004C7 FF                    3128 	.db #0xff	; 255
      0004C8 FF                    3129 	.db #0xff	; 255
      0004C9 FF                    3130 	.db #0xff	; 255
      0004CA FF                    3131 	.db #0xff	; 255
      0004CB FF                    3132 	.db #0xff	; 255
      0004CC FF                    3133 	.db #0xff	; 255
      0004CD FF                    3134 	.db #0xff	; 255
      0004CE FF                    3135 	.db #0xff	; 255
      0004CF FF                    3136 	.db #0xff	; 255
      0004D0 FF                    3137 	.db #0xff	; 255
      0004D1 FF                    3138 	.db #0xff	; 255
      0004D2 FF                    3139 	.db #0xff	; 255
      0004D3 FF                    3140 	.db #0xff	; 255
      0004D4 FF                    3141 	.db #0xff	; 255
      0004D5 FF                    3142 	.db #0xff	; 255
      0004D6 FF                    3143 	.db #0xff	; 255
      0004D7 FF                    3144 	.db #0xff	; 255
      0004D8 FF                    3145 	.db #0xff	; 255
      0004D9 FF                    3146 	.db #0xff	; 255
      0004DA FF                    3147 	.db #0xff	; 255
      0004DB FF                    3148 	.db #0xff	; 255
      0004DC FF                    3149 	.db #0xff	; 255
      0004DD FF                    3150 	.db #0xff	; 255
      0004DE FF                    3151 	.db #0xff	; 255
      0004DF FF                    3152 	.db #0xff	; 255
      0004E0 FF                    3153 	.db #0xff	; 255
      0004E1 FF                    3154 	.db #0xff	; 255
      0004E2 FF                    3155 	.db #0xff	; 255
      0004E3 FF                    3156 	.db #0xff	; 255
      0004E4 FF                    3157 	.db #0xff	; 255
      0004E5 FF                    3158 	.db #0xff	; 255
      0004E6 FF                    3159 	.db #0xff	; 255
      0004E7 FF                    3160 	.db #0xff	; 255
      0004E8 FF                    3161 	.db #0xff	; 255
      0004E9 FF                    3162 	.db #0xff	; 255
      0004EA FF                    3163 	.db #0xff	; 255
      0004EB FF                    3164 	.db #0xff	; 255
      0004EC FF                    3165 	.db #0xff	; 255
      0004ED FF                    3166 	.db #0xff	; 255
      0004EE FF                    3167 	.db #0xff	; 255
      0004EF FF                    3168 	.db #0xff	; 255
      0004F0 FF                    3169 	.db #0xff	; 255
      0004F1 FF                    3170 	.db #0xff	; 255
      0004F2 FF                    3171 	.db #0xff	; 255
      0004F3 FF                    3172 	.db #0xff	; 255
      0004F4 FF                    3173 	.db #0xff	; 255
      0004F5 FF                    3174 	.db #0xff	; 255
      0004F6 FF                    3175 	.db #0xff	; 255
      0004F7 FF                    3176 	.db #0xff	; 255
      0004F8 FF                    3177 	.db #0xff	; 255
      0004F9 FF                    3178 	.db #0xff	; 255
      0004FA FF                    3179 	.db #0xff	; 255
      0004FB FF                    3180 	.db #0xff	; 255
      0004FC FF                    3181 	.db #0xff	; 255
      0004FD FF                    3182 	.db #0xff	; 255
      0004FE FF                    3183 	.db #0xff	; 255
      0004FF FF                    3184 	.db #0xff	; 255
      000500 FF                    3185 	.db #0xff	; 255
      000501 FF                    3186 	.db #0xff	; 255
      000502 FF                    3187 	.db #0xff	; 255
      000503 FF                    3188 	.db #0xff	; 255
      000504 FF                    3189 	.db #0xff	; 255
      000505 FF                    3190 	.db #0xff	; 255
      000506 FF                    3191 	.db #0xff	; 255
      000507 FF                    3192 	.db #0xff	; 255
      000508 FF                    3193 	.db #0xff	; 255
      000509 FF                    3194 	.db #0xff	; 255
      00050A FF                    3195 	.db #0xff	; 255
      00050B FF                    3196 	.db #0xff	; 255
      00050C FF                    3197 	.db #0xff	; 255
      00050D FF                    3198 	.db #0xff	; 255
      00050E FF                    3199 	.db #0xff	; 255
      00050F FF                    3200 	.db #0xff	; 255
      000510 FF                    3201 	.db #0xff	; 255
      000511 FF                    3202 	.db #0xff	; 255
      000512 FF                    3203 	.db #0xff	; 255
      000513 FF                    3204 	.db #0xff	; 255
      000514 FF                    3205 	.db #0xff	; 255
      000515 FF                    3206 	.db #0xff	; 255
      000516 FF                    3207 	.db #0xff	; 255
      000517 FF                    3208 	.db #0xff	; 255
      000518 FF                    3209 	.db #0xff	; 255
      000519 FF                    3210 	.db #0xff	; 255
      00051A FF                    3211 	.db #0xff	; 255
      00051B FF                    3212 	.db #0xff	; 255
      00051C FF                    3213 	.db #0xff	; 255
      00051D FF                    3214 	.db #0xff	; 255
      00051E FF                    3215 	.db #0xff	; 255
      00051F FF                    3216 	.db #0xff	; 255
      000520 FF                    3217 	.db #0xff	; 255
      000521 FF                    3218 	.db #0xff	; 255
      000522 FF                    3219 	.db #0xff	; 255
      000523 FF                    3220 	.db #0xff	; 255
      000524 FF                    3221 	.db #0xff	; 255
      000525 FF                    3222 	.db #0xff	; 255
      000526 FF                    3223 	.db #0xff	; 255
      000527 FF                    3224 	.db #0xff	; 255
      000528 FF                    3225 	.db #0xff	; 255
      000529 FF                    3226 	.db #0xff	; 255
      00052A FF                    3227 	.db #0xff	; 255
      00052B FF                    3228 	.db #0xff	; 255
      00052C FF                    3229 	.db #0xff	; 255
      00052D FF                    3230 	.db #0xff	; 255
      00052E FF                    3231 	.db #0xff	; 255
      00052F FF                    3232 	.db #0xff	; 255
      000530 FF                    3233 	.db #0xff	; 255
      000531 FF                    3234 	.db #0xff	; 255
      000532 FF                    3235 	.db #0xff	; 255
      000533 FF                    3236 	.db #0xff	; 255
      000534 FF                    3237 	.db #0xff	; 255
      000535 FF                    3238 	.db #0xff	; 255
      000536 FF                    3239 	.db #0xff	; 255
      000537 FF                    3240 	.db #0xff	; 255
      000538 FF                    3241 	.db #0xff	; 255
      000539 FF                    3242 	.db #0xff	; 255
      00053A FF                    3243 	.db #0xff	; 255
      00053B FF                    3244 	.db #0xff	; 255
      00053C FF                    3245 	.db #0xff	; 255
      00053D FF                    3246 	.db #0xff	; 255
      00053E FF                    3247 	.db #0xff	; 255
      00053F FF                    3248 	.db #0xff	; 255
      000540 FF                    3249 	.db #0xff	; 255
      000541 FF                    3250 	.db #0xff	; 255
      000542 FF                    3251 	.db #0xff	; 255
      000543 FF                    3252 	.db #0xff	; 255
      000544 FF                    3253 	.db #0xff	; 255
      000545 FF                    3254 	.db #0xff	; 255
      000546 FF                    3255 	.db #0xff	; 255
      000547 FF                    3256 	.db #0xff	; 255
      000548 FF                    3257 	.db #0xff	; 255
      000549 FF                    3258 	.db #0xff	; 255
      00054A FF                    3259 	.db #0xff	; 255
      00054B FF                    3260 	.db #0xff	; 255
      00054C FF                    3261 	.db #0xff	; 255
      00054D FF                    3262 	.db #0xff	; 255
      00054E FF                    3263 	.db #0xff	; 255
      00054F FF                    3264 	.db #0xff	; 255
      000550 FF                    3265 	.db #0xff	; 255
      000551 FF                    3266 	.db #0xff	; 255
      000552 FF                    3267 	.db #0xff	; 255
      000553 FF                    3268 	.db #0xff	; 255
      000554 FF                    3269 	.db #0xff	; 255
      000555 FF                    3270 	.db #0xff	; 255
      000556 FF                    3271 	.db #0xff	; 255
      000557 FF                    3272 	.db #0xff	; 255
      000558 FF                    3273 	.db #0xff	; 255
      000559 FF                    3274 	.db #0xff	; 255
      00055A FF                    3275 	.db #0xff	; 255
      00055B FF                    3276 	.db #0xff	; 255
      00055C FF                    3277 	.db #0xff	; 255
      00055D FF                    3278 	.db #0xff	; 255
      00055E FF                    3279 	.db #0xff	; 255
      00055F FF                    3280 	.db #0xff	; 255
      000560 FF                    3281 	.db #0xff	; 255
      000561 FF                    3282 	.db #0xff	; 255
      000562 FF                    3283 	.db #0xff	; 255
      000563 FF                    3284 	.db #0xff	; 255
      000564 FF                    3285 	.db #0xff	; 255
      000565 FF                    3286 	.db #0xff	; 255
      000566 FF                    3287 	.db #0xff	; 255
      000567 FF                    3288 	.db #0xff	; 255
      000568 FF                    3289 	.db #0xff	; 255
      000569 FF                    3290 	.db #0xff	; 255
      00056A FF                    3291 	.db #0xff	; 255
      00056B FF                    3292 	.db #0xff	; 255
      00056C FF                    3293 	.db #0xff	; 255
      00056D FF                    3294 	.db #0xff	; 255
      00056E FF                    3295 	.db #0xff	; 255
      00056F FF                    3296 	.db #0xff	; 255
      000570 FF                    3297 	.db #0xff	; 255
      000571 FF                    3298 	.db #0xff	; 255
      000572                       3299 _mixigamingLogo:
      000572 00                    3300 	.db #0x00	; 0
      000573 00                    3301 	.db #0x00	; 0
      000574 00                    3302 	.db #0x00	; 0
      000575 00                    3303 	.db #0x00	; 0
      000576 00                    3304 	.db #0x00	; 0
      000577 00                    3305 	.db #0x00	; 0
      000578 00                    3306 	.db #0x00	; 0
      000579 00                    3307 	.db #0x00	; 0
      00057A 00                    3308 	.db #0x00	; 0
      00057B 00                    3309 	.db #0x00	; 0
      00057C 00                    3310 	.db #0x00	; 0
      00057D 00                    3311 	.db #0x00	; 0
      00057E 00                    3312 	.db #0x00	; 0
      00057F 00                    3313 	.db #0x00	; 0
      000580 80                    3314 	.db #0x80	; 128
      000581 40                    3315 	.db #0x40	; 64
      000582 80                    3316 	.db #0x80	; 128
      000583 C0                    3317 	.db #0xc0	; 192
      000584 E0                    3318 	.db #0xe0	; 224
      000585 E0                    3319 	.db #0xe0	; 224
      000586 D0                    3320 	.db #0xd0	; 208
      000587 C8                    3321 	.db #0xc8	; 200
      000588 E0                    3322 	.db #0xe0	; 224
      000589 E0                    3323 	.db #0xe0	; 224
      00058A F0                    3324 	.db #0xf0	; 240
      00058B C0                    3325 	.db #0xc0	; 192
      00058C C0                    3326 	.db #0xc0	; 192
      00058D F8                    3327 	.db #0xf8	; 248
      00058E F0                    3328 	.db #0xf0	; 240
      00058F F8                    3329 	.db #0xf8	; 248
      000590 FC                    3330 	.db #0xfc	; 252
      000591 F8                    3331 	.db #0xf8	; 248
      000592 FC                    3332 	.db #0xfc	; 252
      000593 FE                    3333 	.db #0xfe	; 254
      000594 FE                    3334 	.db #0xfe	; 254
      000595 FA                    3335 	.db #0xfa	; 250
      000596 FC                    3336 	.db #0xfc	; 252
      000597 F8                    3337 	.db #0xf8	; 248
      000598 E4                    3338 	.db #0xe4	; 228
      000599 F8                    3339 	.db #0xf8	; 248
      00059A E0                    3340 	.db #0xe0	; 224
      00059B E0                    3341 	.db #0xe0	; 224
      00059C C0                    3342 	.db #0xc0	; 192
      00059D F0                    3343 	.db #0xf0	; 240
      00059E C0                    3344 	.db #0xc0	; 192
      00059F 80                    3345 	.db #0x80	; 128
      0005A0 20                    3346 	.db #0x20	; 32
      0005A1 80                    3347 	.db #0x80	; 128
      0005A2 80                    3348 	.db #0x80	; 128
      0005A3 C0                    3349 	.db #0xc0	; 192
      0005A4 00                    3350 	.db #0x00	; 0
      0005A5 00                    3351 	.db #0x00	; 0
      0005A6 00                    3352 	.db #0x00	; 0
      0005A7 00                    3353 	.db #0x00	; 0
      0005A8 00                    3354 	.db #0x00	; 0
      0005A9 00                    3355 	.db #0x00	; 0
      0005AA 00                    3356 	.db #0x00	; 0
      0005AB 00                    3357 	.db #0x00	; 0
      0005AC 00                    3358 	.db #0x00	; 0
      0005AD 00                    3359 	.db #0x00	; 0
      0005AE 00                    3360 	.db #0x00	; 0
      0005AF 00                    3361 	.db #0x00	; 0
      0005B0 00                    3362 	.db #0x00	; 0
      0005B1 00                    3363 	.db #0x00	; 0
      0005B2 00                    3364 	.db #0x00	; 0
      0005B3 00                    3365 	.db #0x00	; 0
      0005B4 00                    3366 	.db #0x00	; 0
      0005B5 00                    3367 	.db #0x00	; 0
      0005B6 00                    3368 	.db #0x00	; 0
      0005B7 00                    3369 	.db #0x00	; 0
      0005B8 00                    3370 	.db #0x00	; 0
      0005B9 80                    3371 	.db #0x80	; 128
      0005BA 80                    3372 	.db #0x80	; 128
      0005BB F0                    3373 	.db #0xf0	; 240
      0005BC FC                    3374 	.db #0xfc	; 252
      0005BD F8                    3375 	.db #0xf8	; 248
      0005BE FC                    3376 	.db #0xfc	; 252
      0005BF FE                    3377 	.db #0xfe	; 254
      0005C0 FF                    3378 	.db #0xff	; 255
      0005C1 FF                    3379 	.db #0xff	; 255
      0005C2 FF                    3380 	.db #0xff	; 255
      0005C3 FF                    3381 	.db #0xff	; 255
      0005C4 FF                    3382 	.db #0xff	; 255
      0005C5 FF                    3383 	.db #0xff	; 255
      0005C6 FF                    3384 	.db #0xff	; 255
      0005C7 FF                    3385 	.db #0xff	; 255
      0005C8 FF                    3386 	.db #0xff	; 255
      0005C9 FF                    3387 	.db #0xff	; 255
      0005CA FF                    3388 	.db #0xff	; 255
      0005CB FF                    3389 	.db #0xff	; 255
      0005CC FF                    3390 	.db #0xff	; 255
      0005CD FF                    3391 	.db #0xff	; 255
      0005CE FF                    3392 	.db #0xff	; 255
      0005CF FF                    3393 	.db #0xff	; 255
      0005D0 FF                    3394 	.db #0xff	; 255
      0005D1 FF                    3395 	.db #0xff	; 255
      0005D2 FF                    3396 	.db #0xff	; 255
      0005D3 FF                    3397 	.db #0xff	; 255
      0005D4 FF                    3398 	.db #0xff	; 255
      0005D5 FF                    3399 	.db #0xff	; 255
      0005D6 FF                    3400 	.db #0xff	; 255
      0005D7 FF                    3401 	.db #0xff	; 255
      0005D8 FF                    3402 	.db #0xff	; 255
      0005D9 FF                    3403 	.db #0xff	; 255
      0005DA FF                    3404 	.db #0xff	; 255
      0005DB FF                    3405 	.db #0xff	; 255
      0005DC FF                    3406 	.db #0xff	; 255
      0005DD FF                    3407 	.db #0xff	; 255
      0005DE FF                    3408 	.db #0xff	; 255
      0005DF FF                    3409 	.db #0xff	; 255
      0005E0 FF                    3410 	.db #0xff	; 255
      0005E1 FF                    3411 	.db #0xff	; 255
      0005E2 FF                    3412 	.db #0xff	; 255
      0005E3 FF                    3413 	.db #0xff	; 255
      0005E4 FE                    3414 	.db #0xfe	; 254
      0005E5 FF                    3415 	.db #0xff	; 255
      0005E6 FC                    3416 	.db #0xfc	; 252
      0005E7 F0                    3417 	.db #0xf0	; 240
      0005E8 F8                    3418 	.db #0xf8	; 248
      0005E9 F0                    3419 	.db #0xf0	; 240
      0005EA 00                    3420 	.db #0x00	; 0
      0005EB 00                    3421 	.db #0x00	; 0
      0005EC 00                    3422 	.db #0x00	; 0
      0005ED 00                    3423 	.db #0x00	; 0
      0005EE 00                    3424 	.db #0x00	; 0
      0005EF 00                    3425 	.db #0x00	; 0
      0005F0 00                    3426 	.db #0x00	; 0
      0005F1 00                    3427 	.db #0x00	; 0
      0005F2 00                    3428 	.db #0x00	; 0
      0005F3 00                    3429 	.db #0x00	; 0
      0005F4 00                    3430 	.db #0x00	; 0
      0005F5 00                    3431 	.db #0x00	; 0
      0005F6 00                    3432 	.db #0x00	; 0
      0005F7 F0                    3433 	.db #0xf0	; 240
      0005F8 F8                    3434 	.db #0xf8	; 248
      0005F9 FF                    3435 	.db #0xff	; 255
      0005FA FF                    3436 	.db #0xff	; 255
      0005FB FF                    3437 	.db #0xff	; 255
      0005FC FF                    3438 	.db #0xff	; 255
      0005FD FF                    3439 	.db #0xff	; 255
      0005FE FF                    3440 	.db #0xff	; 255
      0005FF FF                    3441 	.db #0xff	; 255
      000600 FF                    3442 	.db #0xff	; 255
      000601 FF                    3443 	.db #0xff	; 255
      000602 FF                    3444 	.db #0xff	; 255
      000603 FF                    3445 	.db #0xff	; 255
      000604 FF                    3446 	.db #0xff	; 255
      000605 FF                    3447 	.db #0xff	; 255
      000606 FF                    3448 	.db #0xff	; 255
      000607 FF                    3449 	.db #0xff	; 255
      000608 FF                    3450 	.db #0xff	; 255
      000609 FF                    3451 	.db #0xff	; 255
      00060A FF                    3452 	.db #0xff	; 255
      00060B FF                    3453 	.db #0xff	; 255
      00060C FF                    3454 	.db #0xff	; 255
      00060D FF                    3455 	.db #0xff	; 255
      00060E FF                    3456 	.db #0xff	; 255
      00060F FF                    3457 	.db #0xff	; 255
      000610 FF                    3458 	.db #0xff	; 255
      000611 FF                    3459 	.db #0xff	; 255
      000612 FF                    3460 	.db #0xff	; 255
      000613 FF                    3461 	.db #0xff	; 255
      000614 FF                    3462 	.db #0xff	; 255
      000615 FF                    3463 	.db #0xff	; 255
      000616 FF                    3464 	.db #0xff	; 255
      000617 FF                    3465 	.db #0xff	; 255
      000618 FF                    3466 	.db #0xff	; 255
      000619 FF                    3467 	.db #0xff	; 255
      00061A FF                    3468 	.db #0xff	; 255
      00061B FF                    3469 	.db #0xff	; 255
      00061C FF                    3470 	.db #0xff	; 255
      00061D FF                    3471 	.db #0xff	; 255
      00061E FF                    3472 	.db #0xff	; 255
      00061F FF                    3473 	.db #0xff	; 255
      000620 FF                    3474 	.db #0xff	; 255
      000621 FF                    3475 	.db #0xff	; 255
      000622 FF                    3476 	.db #0xff	; 255
      000623 FF                    3477 	.db #0xff	; 255
      000624 FF                    3478 	.db #0xff	; 255
      000625 FF                    3479 	.db #0xff	; 255
      000626 FF                    3480 	.db #0xff	; 255
      000627 FF                    3481 	.db #0xff	; 255
      000628 FF                    3482 	.db #0xff	; 255
      000629 FF                    3483 	.db #0xff	; 255
      00062A FF                    3484 	.db #0xff	; 255
      00062B FF                    3485 	.db #0xff	; 255
      00062C 60                    3486 	.db #0x60	; 96
      00062D 00                    3487 	.db #0x00	; 0
      00062E 00                    3488 	.db #0x00	; 0
      00062F 00                    3489 	.db #0x00	; 0
      000630 00                    3490 	.db #0x00	; 0
      000631 00                    3491 	.db #0x00	; 0
      000632 00                    3492 	.db #0x00	; 0
      000633 00                    3493 	.db #0x00	; 0
      000634 00                    3494 	.db #0x00	; 0
      000635 80                    3495 	.db #0x80	; 128
      000636 E7                    3496 	.db #0xe7	; 231
      000637 7F                    3497 	.db #0x7f	; 127
      000638 FF                    3498 	.db #0xff	; 255
      000639 FF                    3499 	.db #0xff	; 255
      00063A FF                    3500 	.db #0xff	; 255
      00063B FF                    3501 	.db #0xff	; 255
      00063C FF                    3502 	.db #0xff	; 255
      00063D 3F                    3503 	.db #0x3f	; 63
      00063E 1F                    3504 	.db #0x1f	; 31
      00063F 07                    3505 	.db #0x07	; 7
      000640 03                    3506 	.db #0x03	; 3
      000641 01                    3507 	.db #0x01	; 1
      000642 00                    3508 	.db #0x00	; 0
      000643 00                    3509 	.db #0x00	; 0
      000644 00                    3510 	.db #0x00	; 0
      000645 01                    3511 	.db #0x01	; 1
      000646 01                    3512 	.db #0x01	; 1
      000647 83                    3513 	.db #0x83	; 131
      000648 C3                    3514 	.db #0xc3	; 195
      000649 63                    3515 	.db #0x63	; 99	'c'
      00064A 33                    3516 	.db #0x33	; 51	'3'
      00064B 37                    3517 	.db #0x37	; 55	'7'
      00064C 17                    3518 	.db #0x17	; 23
      00064D 97                    3519 	.db #0x97	; 151
      00064E F7                    3520 	.db #0xf7	; 247
      00064F F3                    3521 	.db #0xf3	; 243
      000650 E3                    3522 	.db #0xe3	; 227
      000651 E3                    3523 	.db #0xe3	; 227
      000652 C3                    3524 	.db #0xc3	; 195
      000653 83                    3525 	.db #0x83	; 131
      000654 C3                    3526 	.db #0xc3	; 195
      000655 63                    3527 	.db #0x63	; 99	'c'
      000656 33                    3528 	.db #0x33	; 51	'3'
      000657 1B                    3529 	.db #0x1b	; 27
      000658 09                    3530 	.db #0x09	; 9
      000659 ED                    3531 	.db #0xed	; 237
      00065A FD                    3532 	.db #0xfd	; 253
      00065B FD                    3533 	.db #0xfd	; 253
      00065C F9                    3534 	.db #0xf9	; 249
      00065D F9                    3535 	.db #0xf9	; 249
      00065E 19                    3536 	.db #0x19	; 25
      00065F 71                    3537 	.db #0x71	; 113	'q'
      000660 E1                    3538 	.db #0xe1	; 225
      000661 01                    3539 	.db #0x01	; 1
      000662 01                    3540 	.db #0x01	; 1
      000663 01                    3541 	.db #0x01	; 1
      000664 03                    3542 	.db #0x03	; 3
      000665 03                    3543 	.db #0x03	; 3
      000666 07                    3544 	.db #0x07	; 7
      000667 0F                    3545 	.db #0x0f	; 15
      000668 3F                    3546 	.db #0x3f	; 63
      000669 7F                    3547 	.db #0x7f	; 127
      00066A FF                    3548 	.db #0xff	; 255
      00066B FF                    3549 	.db #0xff	; 255
      00066C 6E                    3550 	.db #0x6e	; 110	'n'
      00066D 9C                    3551 	.db #0x9c	; 156
      00066E F8                    3552 	.db #0xf8	; 248
      00066F 00                    3553 	.db #0x00	; 0
      000670 00                    3554 	.db #0x00	; 0
      000671 00                    3555 	.db #0x00	; 0
      000672 00                    3556 	.db #0x00	; 0
      000673 00                    3557 	.db #0x00	; 0
      000674 00                    3558 	.db #0x00	; 0
      000675 03                    3559 	.db #0x03	; 3
      000676 0F                    3560 	.db #0x0f	; 15
      000677 08                    3561 	.db #0x08	; 8
      000678 1B                    3562 	.db #0x1b	; 27
      000679 FF                    3563 	.db #0xff	; 255
      00067A 7F                    3564 	.db #0x7f	; 127
      00067B 03                    3565 	.db #0x03	; 3
      00067C 00                    3566 	.db #0x00	; 0
      00067D 00                    3567 	.db #0x00	; 0
      00067E 00                    3568 	.db #0x00	; 0
      00067F 00                    3569 	.db #0x00	; 0
      000680 00                    3570 	.db #0x00	; 0
      000681 00                    3571 	.db #0x00	; 0
      000682 00                    3572 	.db #0x00	; 0
      000683 00                    3573 	.db #0x00	; 0
      000684 00                    3574 	.db #0x00	; 0
      000685 00                    3575 	.db #0x00	; 0
      000686 00                    3576 	.db #0x00	; 0
      000687 1F                    3577 	.db #0x1f	; 31
      000688 39                    3578 	.db #0x39	; 57	'9'
      000689 60                    3579 	.db #0x60	; 96
      00068A 60                    3580 	.db #0x60	; 96
      00068B C0                    3581 	.db #0xc0	; 192
      00068C C0                    3582 	.db #0xc0	; 192
      00068D C3                    3583 	.db #0xc3	; 195
      00068E C7                    3584 	.db #0xc7	; 199
      00068F 4F                    3585 	.db #0x4f	; 79	'O'
      000690 67                    3586 	.db #0x67	; 103	'g'
      000691 33                    3587 	.db #0x33	; 51	'3'
      000692 3F                    3588 	.db #0x3f	; 63
      000693 7F                    3589 	.db #0x7f	; 127
      000694 C1                    3590 	.db #0xc1	; 193
      000695 80                    3591 	.db #0x80	; 128
      000696 80                    3592 	.db #0x80	; 128
      000697 80                    3593 	.db #0x80	; 128
      000698 80                    3594 	.db #0x80	; 128
      000699 81                    3595 	.db #0x81	; 129
      00069A 81                    3596 	.db #0x81	; 129
      00069B 83                    3597 	.db #0x83	; 131
      00069C C3                    3598 	.db #0xc3	; 195
      00069D C1                    3599 	.db #0xc1	; 193
      00069E 60                    3600 	.db #0x60	; 96
      00069F 38                    3601 	.db #0x38	; 56	'8'
      0006A0 0F                    3602 	.db #0x0f	; 15
      0006A1 01                    3603 	.db #0x01	; 1
      0006A2 00                    3604 	.db #0x00	; 0
      0006A3 00                    3605 	.db #0x00	; 0
      0006A4 00                    3606 	.db #0x00	; 0
      0006A5 00                    3607 	.db #0x00	; 0
      0006A6 00                    3608 	.db #0x00	; 0
      0006A7 00                    3609 	.db #0x00	; 0
      0006A8 00                    3610 	.db #0x00	; 0
      0006A9 00                    3611 	.db #0x00	; 0
      0006AA 01                    3612 	.db #0x01	; 1
      0006AB 07                    3613 	.db #0x07	; 7
      0006AC 3F                    3614 	.db #0x3f	; 63
      0006AD F1                    3615 	.db #0xf1	; 241
      0006AE 00                    3616 	.db #0x00	; 0
      0006AF 00                    3617 	.db #0x00	; 0
      0006B0 00                    3618 	.db #0x00	; 0
      0006B1 00                    3619 	.db #0x00	; 0
      0006B2 00                    3620 	.db #0x00	; 0
      0006B3 00                    3621 	.db #0x00	; 0
      0006B4 00                    3622 	.db #0x00	; 0
      0006B5 00                    3623 	.db #0x00	; 0
      0006B6 00                    3624 	.db #0x00	; 0
      0006B7 00                    3625 	.db #0x00	; 0
      0006B8 00                    3626 	.db #0x00	; 0
      0006B9 3F                    3627 	.db #0x3f	; 63
      0006BA F8                    3628 	.db #0xf8	; 248
      0006BB 80                    3629 	.db #0x80	; 128
      0006BC 00                    3630 	.db #0x00	; 0
      0006BD 00                    3631 	.db #0x00	; 0
      0006BE 00                    3632 	.db #0x00	; 0
      0006BF 00                    3633 	.db #0x00	; 0
      0006C0 00                    3634 	.db #0x00	; 0
      0006C1 00                    3635 	.db #0x00	; 0
      0006C2 00                    3636 	.db #0x00	; 0
      0006C3 00                    3637 	.db #0x00	; 0
      0006C4 00                    3638 	.db #0x00	; 0
      0006C5 00                    3639 	.db #0x00	; 0
      0006C6 00                    3640 	.db #0x00	; 0
      0006C7 00                    3641 	.db #0x00	; 0
      0006C8 00                    3642 	.db #0x00	; 0
      0006C9 00                    3643 	.db #0x00	; 0
      0006CA 00                    3644 	.db #0x00	; 0
      0006CB 00                    3645 	.db #0x00	; 0
      0006CC 00                    3646 	.db #0x00	; 0
      0006CD 00                    3647 	.db #0x00	; 0
      0006CE 00                    3648 	.db #0x00	; 0
      0006CF 00                    3649 	.db #0x00	; 0
      0006D0 00                    3650 	.db #0x00	; 0
      0006D1 00                    3651 	.db #0x00	; 0
      0006D2 00                    3652 	.db #0x00	; 0
      0006D3 00                    3653 	.db #0x00	; 0
      0006D4 00                    3654 	.db #0x00	; 0
      0006D5 00                    3655 	.db #0x00	; 0
      0006D6 01                    3656 	.db #0x01	; 1
      0006D7 01                    3657 	.db #0x01	; 1
      0006D8 01                    3658 	.db #0x01	; 1
      0006D9 01                    3659 	.db #0x01	; 1
      0006DA 01                    3660 	.db #0x01	; 1
      0006DB 01                    3661 	.db #0x01	; 1
      0006DC 00                    3662 	.db #0x00	; 0
      0006DD 00                    3663 	.db #0x00	; 0
      0006DE 00                    3664 	.db #0x00	; 0
      0006DF 00                    3665 	.db #0x00	; 0
      0006E0 00                    3666 	.db #0x00	; 0
      0006E1 00                    3667 	.db #0x00	; 0
      0006E2 00                    3668 	.db #0x00	; 0
      0006E3 00                    3669 	.db #0x00	; 0
      0006E4 00                    3670 	.db #0x00	; 0
      0006E5 00                    3671 	.db #0x00	; 0
      0006E6 00                    3672 	.db #0x00	; 0
      0006E7 00                    3673 	.db #0x00	; 0
      0006E8 00                    3674 	.db #0x00	; 0
      0006E9 00                    3675 	.db #0x00	; 0
      0006EA 00                    3676 	.db #0x00	; 0
      0006EB 80                    3677 	.db #0x80	; 128
      0006EC F0                    3678 	.db #0xf0	; 240
      0006ED 7F                    3679 	.db #0x7f	; 127
      0006EE 00                    3680 	.db #0x00	; 0
      0006EF 00                    3681 	.db #0x00	; 0
      0006F0 00                    3682 	.db #0x00	; 0
      0006F1 00                    3683 	.db #0x00	; 0
      0006F2 00                    3684 	.db #0x00	; 0
      0006F3 00                    3685 	.db #0x00	; 0
      0006F4 00                    3686 	.db #0x00	; 0
      0006F5 00                    3687 	.db #0x00	; 0
      0006F6 00                    3688 	.db #0x00	; 0
      0006F7 00                    3689 	.db #0x00	; 0
      0006F8 00                    3690 	.db #0x00	; 0
      0006F9 00                    3691 	.db #0x00	; 0
      0006FA 01                    3692 	.db #0x01	; 1
      0006FB 07                    3693 	.db #0x07	; 7
      0006FC 1C                    3694 	.db #0x1c	; 28
      0006FD 70                    3695 	.db #0x70	; 112	'p'
      0006FE E0                    3696 	.db #0xe0	; 224
      0006FF 80                    3697 	.db #0x80	; 128
      000700 00                    3698 	.db #0x00	; 0
      000701 00                    3699 	.db #0x00	; 0
      000702 00                    3700 	.db #0x00	; 0
      000703 00                    3701 	.db #0x00	; 0
      000704 00                    3702 	.db #0x00	; 0
      000705 00                    3703 	.db #0x00	; 0
      000706 03                    3704 	.db #0x03	; 3
      000707 0C                    3705 	.db #0x0c	; 12
      000708 18                    3706 	.db #0x18	; 24
      000709 30                    3707 	.db #0x30	; 48	'0'
      00070A 60                    3708 	.db #0x60	; 96
      00070B C0                    3709 	.db #0xc0	; 192
      00070C 80                    3710 	.db #0x80	; 128
      00070D 80                    3711 	.db #0x80	; 128
      00070E 00                    3712 	.db #0x00	; 0
      00070F 00                    3713 	.db #0x00	; 0
      000710 00                    3714 	.db #0x00	; 0
      000711 00                    3715 	.db #0x00	; 0
      000712 00                    3716 	.db #0x00	; 0
      000713 00                    3717 	.db #0x00	; 0
      000714 00                    3718 	.db #0x00	; 0
      000715 00                    3719 	.db #0x00	; 0
      000716 00                    3720 	.db #0x00	; 0
      000717 00                    3721 	.db #0x00	; 0
      000718 00                    3722 	.db #0x00	; 0
      000719 00                    3723 	.db #0x00	; 0
      00071A 00                    3724 	.db #0x00	; 0
      00071B 00                    3725 	.db #0x00	; 0
      00071C 80                    3726 	.db #0x80	; 128
      00071D C0                    3727 	.db #0xc0	; 192
      00071E 60                    3728 	.db #0x60	; 96
      00071F 30                    3729 	.db #0x30	; 48	'0'
      000720 0C                    3730 	.db #0x0c	; 12
      000721 00                    3731 	.db #0x00	; 0
      000722 00                    3732 	.db #0x00	; 0
      000723 00                    3733 	.db #0x00	; 0
      000724 00                    3734 	.db #0x00	; 0
      000725 80                    3735 	.db #0x80	; 128
      000726 C3                    3736 	.db #0xc3	; 195
      000727 E0                    3737 	.db #0xe0	; 224
      000728 70                    3738 	.db #0x70	; 112	'p'
      000729 38                    3739 	.db #0x38	; 56	'8'
      00072A 0E                    3740 	.db #0x0e	; 14
      00072B 07                    3741 	.db #0x07	; 7
      00072C 01                    3742 	.db #0x01	; 1
      00072D 00                    3743 	.db #0x00	; 0
      00072E 00                    3744 	.db #0x00	; 0
      00072F 00                    3745 	.db #0x00	; 0
      000730 00                    3746 	.db #0x00	; 0
      000731 00                    3747 	.db #0x00	; 0
      000732 00                    3748 	.db #0x00	; 0
      000733 00                    3749 	.db #0x00	; 0
      000734 00                    3750 	.db #0x00	; 0
      000735 00                    3751 	.db #0x00	; 0
      000736 00                    3752 	.db #0x00	; 0
      000737 00                    3753 	.db #0x00	; 0
      000738 00                    3754 	.db #0x00	; 0
      000739 00                    3755 	.db #0x00	; 0
      00073A 00                    3756 	.db #0x00	; 0
      00073B 00                    3757 	.db #0x00	; 0
      00073C 00                    3758 	.db #0x00	; 0
      00073D 00                    3759 	.db #0x00	; 0
      00073E 00                    3760 	.db #0x00	; 0
      00073F 01                    3761 	.db #0x01	; 1
      000740 03                    3762 	.db #0x03	; 3
      000741 07                    3763 	.db #0x07	; 7
      000742 06                    3764 	.db #0x06	; 6
      000743 0C                    3765 	.db #0x0c	; 12
      000744 08                    3766 	.db #0x08	; 8
      000745 18                    3767 	.db #0x18	; 24
      000746 10                    3768 	.db #0x10	; 16
      000747 30                    3769 	.db #0x30	; 48	'0'
      000748 30                    3770 	.db #0x30	; 48	'0'
      000749 20                    3771 	.db #0x20	; 32
      00074A 60                    3772 	.db #0x60	; 96
      00074B 60                    3773 	.db #0x60	; 96
      00074C 40                    3774 	.db #0x40	; 64
      00074D 41                    3775 	.db #0x41	; 65	'A'
      00074E 41                    3776 	.db #0x41	; 65	'A'
      00074F 41                    3777 	.db #0x41	; 65	'A'
      000750 43                    3778 	.db #0x43	; 67	'C'
      000751 42                    3779 	.db #0x42	; 66	'B'
      000752 42                    3780 	.db #0x42	; 66	'B'
      000753 42                    3781 	.db #0x42	; 66	'B'
      000754 42                    3782 	.db #0x42	; 66	'B'
      000755 42                    3783 	.db #0x42	; 66	'B'
      000756 42                    3784 	.db #0x42	; 66	'B'
      000757 62                    3785 	.db #0x62	; 98	'b'
      000758 62                    3786 	.db #0x62	; 98	'b'
      000759 63                    3787 	.db #0x63	; 99	'c'
      00075A 21                    3788 	.db #0x21	; 33
      00075B 21                    3789 	.db #0x21	; 33
      00075C 30                    3790 	.db #0x30	; 48	'0'
      00075D 10                    3791 	.db #0x10	; 16
      00075E 18                    3792 	.db #0x18	; 24
      00075F 18                    3793 	.db #0x18	; 24
      000760 08                    3794 	.db #0x08	; 8
      000761 0C                    3795 	.db #0x0c	; 12
      000762 06                    3796 	.db #0x06	; 6
      000763 06                    3797 	.db #0x06	; 6
      000764 03                    3798 	.db #0x03	; 3
      000765 01                    3799 	.db #0x01	; 1
      000766 00                    3800 	.db #0x00	; 0
      000767 00                    3801 	.db #0x00	; 0
      000768 00                    3802 	.db #0x00	; 0
      000769 00                    3803 	.db #0x00	; 0
      00076A 00                    3804 	.db #0x00	; 0
      00076B 00                    3805 	.db #0x00	; 0
      00076C 00                    3806 	.db #0x00	; 0
      00076D 00                    3807 	.db #0x00	; 0
      00076E 00                    3808 	.db #0x00	; 0
      00076F 00                    3809 	.db #0x00	; 0
      000770 00                    3810 	.db #0x00	; 0
      000771 00                    3811 	.db #0x00	; 0
      000772                       3812 _levelBAT_full:
      000772 FF                    3813 	.db #0xff	; 255
      000773 81                    3814 	.db #0x81	; 129
      000774 BD                    3815 	.db #0xbd	; 189
      000775 BD                    3816 	.db #0xbd	; 189
      000776 BD                    3817 	.db #0xbd	; 189
      000777 81                    3818 	.db #0x81	; 129
      000778 BD                    3819 	.db #0xbd	; 189
      000779 BD                    3820 	.db #0xbd	; 189
      00077A BD                    3821 	.db #0xbd	; 189
      00077B 81                    3822 	.db #0x81	; 129
      00077C BD                    3823 	.db #0xbd	; 189
      00077D BD                    3824 	.db #0xbd	; 189
      00077E BD                    3825 	.db #0xbd	; 189
      00077F 81                    3826 	.db #0x81	; 129
      000780 FF                    3827 	.db #0xff	; 255
      000781 18                    3828 	.db #0x18	; 24
      000782                       3829 _levelBAT_Tb:
      000782 FF                    3830 	.db #0xff	; 255
      000783 81                    3831 	.db #0x81	; 129
      000784 BD                    3832 	.db #0xbd	; 189
      000785 BD                    3833 	.db #0xbd	; 189
      000786 BD                    3834 	.db #0xbd	; 189
      000787 81                    3835 	.db #0x81	; 129
      000788 BD                    3836 	.db #0xbd	; 189
      000789 BD                    3837 	.db #0xbd	; 189
      00078A BD                    3838 	.db #0xbd	; 189
      00078B 81                    3839 	.db #0x81	; 129
      00078C 81                    3840 	.db #0x81	; 129
      00078D 81                    3841 	.db #0x81	; 129
      00078E 81                    3842 	.db #0x81	; 129
      00078F 81                    3843 	.db #0x81	; 129
      000790 FF                    3844 	.db #0xff	; 255
      000791 18                    3845 	.db #0x18	; 24
      000792                       3846 _rssi:
      000792 C0                    3847 	.db #0xc0	; 192
      000793 00                    3848 	.db #0x00	; 0
      000794 E0                    3849 	.db #0xe0	; 224
      000795 E0                    3850 	.db #0xe0	; 224
      000796 00                    3851 	.db #0x00	; 0
      000797 F0                    3852 	.db #0xf0	; 240
      000798 F0                    3853 	.db #0xf0	; 240
      000799 00                    3854 	.db #0x00	; 0
      00079A F8                    3855 	.db #0xf8	; 248
      00079B F8                    3856 	.db #0xf8	; 248
      00079C 00                    3857 	.db #0x00	; 0
      00079D FC                    3858 	.db #0xfc	; 252
      00079E FC                    3859 	.db #0xfc	; 252
      00079F 00                    3860 	.db #0x00	; 0
      0007A0 FE                    3861 	.db #0xfe	; 254
      0007A1 FE                    3862 	.db #0xfe	; 254
      0007A2                       3863 _station_icon:
      0007A2 FE                    3864 	.db #0xfe	; 254
      0007A3 82                    3865 	.db #0x82	; 130
      0007A4 BA                    3866 	.db #0xba	; 186
      0007A5 82                    3867 	.db #0x82	; 130
      0007A6 BA                    3868 	.db #0xba	; 186
      0007A7 82                    3869 	.db #0x82	; 130
      0007A8 BA                    3870 	.db #0xba	; 186
      0007A9 82                    3871 	.db #0x82	; 130
      0007AA BA                    3872 	.db #0xba	; 186
      0007AB AA                    3873 	.db #0xaa	; 170
      0007AC AA                    3874 	.db #0xaa	; 170
      0007AD AA                    3875 	.db #0xaa	; 170
      0007AE AA                    3876 	.db #0xaa	; 170
      0007AF BA                    3877 	.db #0xba	; 186
      0007B0 82                    3878 	.db #0x82	; 130
      0007B1 FE                    3879 	.db #0xfe	; 254
      0007B2                       3880 _clock_icon:
      0007B2 00                    3881 	.db #0x00	; 0
      0007B3 00                    3882 	.db #0x00	; 0
      0007B4 00                    3883 	.db #0x00	; 0
      0007B5 38                    3884 	.db #0x38	; 56	'8'
      0007B6 44                    3885 	.db #0x44	; 68	'D'
      0007B7 82                    3886 	.db #0x82	; 130
      0007B8 82                    3887 	.db #0x82	; 130
      0007B9 9A                    3888 	.db #0x9a	; 154
      0007BA 92                    3889 	.db #0x92	; 146
      0007BB 92                    3890 	.db #0x92	; 146
      0007BC 44                    3891 	.db #0x44	; 68	'D'
      0007BD 38                    3892 	.db #0x38	; 56	'8'
      0007BE 00                    3893 	.db #0x00	; 0
      0007BF 00                    3894 	.db #0x00	; 0
      0007C0 00                    3895 	.db #0x00	; 0
      0007C1 00                    3896 	.db #0x00	; 0
                                   3897 	.area INITIALIZER
                                   3898 	.area CABS (ABS)
