                                      1 ;--------------------------------------------------------
                                      2 ; File Created by SDCC : free open source ISO C Compiler 
                                      3 ; Version 4.3.0 #14184 (MINGW64)
                                      4 ;--------------------------------------------------------
                                      5 	.module main
                                      6 	.optsdcc -mstm8
                                      7 	
                                      8 ;--------------------------------------------------------
                                      9 ; Public variables in this module
                                     10 ;--------------------------------------------------------
                                     11 	.globl _OLED_FONT
                                     12 	.globl _OLED_INIT_CMD
                                     13 	.globl _main
                                     14 	.globl _I2C_stop
                                     15 	.globl _I2C_write
                                     16 	.globl _I2C_address
                                     17 	.globl _I2C_start
                                     18 	.globl _I2C_init
                                     19 	.globl _delay_ms
                                     20 	.globl _delay_msSetup
                                     21 	.globl _GPIO_Init
                                     22 	.globl _GPIO_DeInit
                                     23 	.globl _CLK_HSIPrescalerConfig
                                     24 	.globl _a
                                     25 	.globl _ketqua
                                     26 	.globl _i
                                     27 	.globl _nut
                                     28 	.globl _dem
                                     29 	.globl _OLED_init
                                     30 	.globl _OLED_printOneNumber
                                     31 	.globl _OLED_printP
                                     32 	.globl _OLED_cursor
                                     33 	.globl _OLED_clear
                                     34 ;--------------------------------------------------------
                                     35 ; ram data
                                     36 ;--------------------------------------------------------
                                     37 	.area DATA
                                     38 ;--------------------------------------------------------
                                     39 ; ram data
                                     40 ;--------------------------------------------------------
                                     41 	.area INITIALIZED
      000000                         42 _dem::
      000000                         43 	.ds 1
      000001                         44 _nut::
      000001                         45 	.ds 1
      000002                         46 _i::
      000002                         47 	.ds 2
      000004                         48 _ketqua::
      000004                         49 	.ds 1
      000005                         50 _a::
      000005                         51 	.ds 6
                                     52 ;--------------------------------------------------------
                                     53 ; Stack segment in internal ram
                                     54 ;--------------------------------------------------------
                                     55 	.area SSEG
      000000                         56 __start__stack:
      000000                         57 	.ds	1
                                     58 
                                     59 ;--------------------------------------------------------
                                     60 ; absolute external ram data
                                     61 ;--------------------------------------------------------
                                     62 	.area DABS (ABS)
                                     63 
                                     64 ; default segment ordering for linker
                                     65 	.area HOME
                                     66 	.area GSINIT
                                     67 	.area GSFINAL
                                     68 	.area CONST
                                     69 	.area INITIALIZER
                                     70 	.area CODE
                                     71 
                                     72 ;--------------------------------------------------------
                                     73 ; interrupt vector
                                     74 ;--------------------------------------------------------
                                     75 	.area HOME
      000000                         76 __interrupt_vect:
      000000 82v00u00u00             77 	int s_GSINIT ; reset
                                     78 ;--------------------------------------------------------
                                     79 ; global & static initialisations
                                     80 ;--------------------------------------------------------
                                     81 	.area HOME
                                     82 	.area GSINIT
                                     83 	.area GSFINAL
                                     84 	.area GSINIT
      000000 CDr00r00         [ 4]   85 	call	___sdcc_external_startup
      000003 4D               [ 1]   86 	tnz	a
      000004 27 03            [ 1]   87 	jreq	__sdcc_init_data
      000006 CCr00r04         [ 2]   88 	jp	__sdcc_program_startup
      000009                         89 __sdcc_init_data:
                                     90 ; stm8_genXINIT() start
      000009 AEr00r00         [ 2]   91 	ldw x, #l_DATA
      00000C 27 07            [ 1]   92 	jreq	00002$
      00000E                         93 00001$:
      00000E 72 4FuFFuFF      [ 1]   94 	clr (s_DATA - 1, x)
      000012 5A               [ 2]   95 	decw x
      000013 26 F9            [ 1]   96 	jrne	00001$
      000015                         97 00002$:
      000015 AEr00r00         [ 2]   98 	ldw	x, #l_INITIALIZER
      000018 27 09            [ 1]   99 	jreq	00004$
      00001A                        100 00003$:
      00001A D6uFFuFF         [ 1]  101 	ld	a, (s_INITIALIZER - 1, x)
      00001D D7uFFuFF         [ 1]  102 	ld	(s_INITIALIZED - 1, x), a
      000020 5A               [ 2]  103 	decw	x
      000021 26 F7            [ 1]  104 	jrne	00003$
      000023                        105 00004$:
                                    106 ; stm8_genXINIT() end
                                    107 	.area GSFINAL
      000000 CCr00r04         [ 2]  108 	jp	__sdcc_program_startup
                                    109 ;--------------------------------------------------------
                                    110 ; Home
                                    111 ;--------------------------------------------------------
                                    112 	.area HOME
                                    113 	.area HOME
      000004                        114 __sdcc_program_startup:
      000004 CCr00r00         [ 2]  115 	jp	_main
                                    116 ;	return from main will return to caller
                                    117 ;--------------------------------------------------------
                                    118 ; code
                                    119 ;--------------------------------------------------------
                                    120 	.area CODE
                                    121 ;	main.c: 99: void main (void)
                                    122 ;	-----------------------------------------
                                    123 ;	 function main
                                    124 ;	-----------------------------------------
      000000                        125 _main:
                                    126 ;	main.c: 101: CLK_HSIPrescalerConfig(CLK_PRESCALER_HSIDIV1);
      000000 4F               [ 1]  127 	clr	a
      000001 CDr00r00         [ 4]  128 	call	_CLK_HSIPrescalerConfig
                                    129 ;	main.c: 102: GPIO_DeInit(GPIOB);
      000004 AE 50 05         [ 2]  130 	ldw	x, #0x5005
      000007 CDr00r00         [ 4]  131 	call	_GPIO_DeInit
                                    132 ;	main.c: 103: GPIO_Init(GPIOB, GPIO_PIN_4, GPIO_MODE_OUT_OD_HIZ_SLOW);
      00000A 4B 90            [ 1]  133 	push	#0x90
      00000C A6 10            [ 1]  134 	ld	a, #0x10
      00000E AE 50 05         [ 2]  135 	ldw	x, #0x5005
      000011 CDr00r00         [ 4]  136 	call	_GPIO_Init
                                    137 ;	main.c: 104: GPIO_Init(GPIOB, GPIO_PIN_5, GPIO_MODE_OUT_OD_HIZ_SLOW);
      000014 4B 90            [ 1]  138 	push	#0x90
      000016 A6 20            [ 1]  139 	ld	a, #0x20
      000018 AE 50 05         [ 2]  140 	ldw	x, #0x5005
      00001B CDr00r00         [ 4]  141 	call	_GPIO_Init
                                    142 ;	main.c: 106: I2C_init(I2C_CLOCK, OLED_I2C_ADDR);
      00001E 4B 78            [ 1]  143 	push	#0x78
      000020 4B A0            [ 1]  144 	push	#0xa0
      000022 4B 86            [ 1]  145 	push	#0x86
      000024 4B 01            [ 1]  146 	push	#0x01
      000026 4B 00            [ 1]  147 	push	#0x00
      000028 CDr00r00         [ 4]  148 	call	_I2C_init
                                    149 ;	main.c: 107: delay_msSetup();
      00002B CDr00r00         [ 4]  150 	call	_delay_msSetup
                                    151 ;	main.c: 108: OLED_init();
      00002E CDr00r6A         [ 4]  152 	call	_OLED_init
                                    153 ;	main.c: 127: OLED_cursor(0,0);
      000031 4B 00            [ 1]  154 	push	#0x00
      000033 4F               [ 1]  155 	clr	a
      000034 CDr01r24         [ 4]  156 	call	_OLED_cursor
                                    157 ;	main.c: 128: OLED_printP(a);
      000037 AEr00r05         [ 2]  158 	ldw	x, #(_a+0)
      00003A CDr00rD1         [ 4]  159 	call	_OLED_printP
                                    160 ;	main.c: 129: OLED_cursor(0,2);
      00003D 4B 02            [ 1]  161 	push	#0x02
      00003F 4F               [ 1]  162 	clr	a
      000040 CDr01r24         [ 4]  163 	call	_OLED_cursor
                                    164 ;	main.c: 130: OLED_printP(a);
      000043 AEr00r05         [ 2]  165 	ldw	x, #(_a+0)
      000046 CDr00rD1         [ 4]  166 	call	_OLED_printP
                                    167 ;	main.c: 131: delay_ms(10);
      000049 AE 00 0A         [ 2]  168 	ldw	x, #0x000a
      00004C CDr00r00         [ 4]  169 	call	_delay_ms
                                    170 ;	main.c: 132: OLED_clear();
      00004F CDr01r58         [ 4]  171 	call	_OLED_clear
                                    172 ;	main.c: 133: while(1) 
      000052                        173 00102$:
                                    174 ;	main.c: 135: OLED_cursor(0,0);
      000052 4B 00            [ 1]  175 	push	#0x00
      000054 4F               [ 1]  176 	clr	a
      000055 CDr01r24         [ 4]  177 	call	_OLED_cursor
                                    178 ;	main.c: 136: OLED_printP(a);
      000058 AEr00r05         [ 2]  179 	ldw	x, #(_a+0)
      00005B CDr00rD1         [ 4]  180 	call	_OLED_printP
                                    181 ;	main.c: 137: delay_ms(1000);
      00005E AE 03 E8         [ 2]  182 	ldw	x, #0x03e8
      000061 CDr00r00         [ 4]  183 	call	_delay_ms
                                    184 ;	main.c: 138: OLED_clear();
      000064 CDr01r58         [ 4]  185 	call	_OLED_clear
      000067 20 E9            [ 2]  186 	jra	00102$
                                    187 ;	main.c: 154: }
      000069 81               [ 4]  188 	ret
                                    189 ;	main.c: 193: void OLED_init(void)
                                    190 ;	-----------------------------------------
                                    191 ;	 function OLED_init
                                    192 ;	-----------------------------------------
      00006A                        193 _OLED_init:
      00006A 88               [ 1]  194 	push	a
                                    195 ;	main.c: 195: I2C_start();
      00006B CDr00r00         [ 4]  196 	call	_I2C_start
                                    197 ;	main.c: 196: I2C_address(OLED_I2C_ADDR, OLED_CMD_MODE);
      00006E 4B 00            [ 1]  198 	push	#0x00
      000070 A6 78            [ 1]  199 	ld	a, #0x78
      000072 CDr00r00         [ 4]  200 	call	_I2C_address
                                    201 ;	main.c: 197: for (uint8_t i = 0;i < 12;i++)
      000075 0F 01            [ 1]  202 	clr	(0x01, sp)
      000077                        203 00103$:
      000077 7B 01            [ 1]  204 	ld	a, (0x01, sp)
      000079 A1 0C            [ 1]  205 	cp	a, #0x0c
      00007B 24 0F            [ 1]  206 	jrnc	00101$
                                    207 ;	main.c: 199: I2C_write(OLED_INIT_CMD[i]);
      00007D 5F               [ 1]  208 	clrw	x
      00007E 7B 01            [ 1]  209 	ld	a, (0x01, sp)
      000080 97               [ 1]  210 	ld	xl, a
      000081 1Cr00r00         [ 2]  211 	addw	x, #(_OLED_INIT_CMD+0)
      000084 F6               [ 1]  212 	ld	a, (x)
      000085 CDr00r00         [ 4]  213 	call	_I2C_write
                                    214 ;	main.c: 197: for (uint8_t i = 0;i < 12;i++)
      000088 0C 01            [ 1]  215 	inc	(0x01, sp)
      00008A 20 EB            [ 2]  216 	jra	00103$
      00008C                        217 00101$:
                                    218 ;	main.c: 201: I2C_stop();
      00008C 84               [ 1]  219 	pop	a
      00008D CCr00r00         [ 2]  220 	jp	_I2C_stop
                                    221 ;	main.c: 202: }
      000090 84               [ 1]  222 	pop	a
      000091 81               [ 4]  223 	ret
                                    224 ;	main.c: 203: void OLED_printOneNumber(uint8_t num)
                                    225 ;	-----------------------------------------
                                    226 ;	 function OLED_printOneNumber
                                    227 ;	-----------------------------------------
      000092                        228 _OLED_printOneNumber:
      000092 52 02            [ 2]  229 	sub	sp, #2
                                    230 ;	main.c: 205: uint16_t offset = num + 16;
      000094 5F               [ 1]  231 	clrw	x
      000095 97               [ 1]  232 	ld	xl, a
      000096 1C 00 10         [ 2]  233 	addw	x, #0x0010
                                    234 ;	main.c: 206: offset += offset << 2;
      000099 1F 01            [ 2]  235 	ldw	(0x01, sp), x
      00009B 58               [ 2]  236 	sllw	x
      00009C 58               [ 2]  237 	sllw	x
      00009D 72 FB 01         [ 2]  238 	addw	x, (0x01, sp)
      0000A0 1F 01            [ 2]  239 	ldw	(0x01, sp), x
                                    240 ;	main.c: 207: I2C_start();
      0000A2 CDr00r00         [ 4]  241 	call	_I2C_start
                                    242 ;	main.c: 208: I2C_address(OLED_I2C_ADDR, OLED_DAT_MODE);
      0000A5 4B 40            [ 1]  243 	push	#0x40
      0000A7 A6 78            [ 1]  244 	ld	a, #0x78
      0000A9 CDr00r00         [ 4]  245 	call	_I2C_address
                                    246 ;	main.c: 209: I2C_write(0x00);
      0000AC 4F               [ 1]  247 	clr	a
      0000AD CDr00r00         [ 4]  248 	call	_I2C_write
                                    249 ;	main.c: 210: for(uint8_t i = 5; i;i--){ I2C_write(OLED_FONT[offset++]); }
      0000B0 1E 01            [ 2]  250 	ldw	x, (0x01, sp)
      0000B2 A6 05            [ 1]  251 	ld	a, #0x05
      0000B4 6B 02            [ 1]  252 	ld	(0x02, sp), a
      0000B6                        253 00103$:
      0000B6 0D 02            [ 1]  254 	tnz	(0x02, sp)
      0000B8 27 12            [ 1]  255 	jreq	00101$
      0000BA 90 93            [ 1]  256 	ldw	y, x
      0000BC 72 A9r00r0E      [ 2]  257 	addw	y, #(_OLED_FONT+0)
      0000C0 5C               [ 1]  258 	incw	x
      0000C1 90 F6            [ 1]  259 	ld	a, (y)
      0000C3 89               [ 2]  260 	pushw	x
      0000C4 CDr00r00         [ 4]  261 	call	_I2C_write
      0000C7 85               [ 2]  262 	popw	x
      0000C8 0A 02            [ 1]  263 	dec	(0x02, sp)
      0000CA 20 EA            [ 2]  264 	jra	00103$
      0000CC                        265 00101$:
                                    266 ;	main.c: 211: I2C_stop();
      0000CC 5B 02            [ 2]  267 	addw	sp, #2
                                    268 ;	main.c: 212: }
      0000CE CCr00r00         [ 2]  269 	jp	_I2C_stop
                                    270 ;	main.c: 213: void OLED_printP(const char *p)
                                    271 ;	-----------------------------------------
                                    272 ;	 function OLED_printP
                                    273 ;	-----------------------------------------
      0000D1                        274 _OLED_printP:
      0000D1 52 07            [ 2]  275 	sub	sp, #7
      0000D3 1F 03            [ 2]  276 	ldw	(0x03, sp), x
                                    277 ;	main.c: 215: I2C_start();
      0000D5 CDr00r00         [ 4]  278 	call	_I2C_start
                                    279 ;	main.c: 216: I2C_address(OLED_I2C_ADDR, OLED_DAT_MODE);
      0000D8 4B 40            [ 1]  280 	push	#0x40
      0000DA A6 78            [ 1]  281 	ld	a, #0x78
      0000DC CDr00r00         [ 4]  282 	call	_I2C_address
                                    283 ;	main.c: 217: while (*p)
      0000DF 16 03            [ 2]  284 	ldw	y, (0x03, sp)
      0000E1 17 05            [ 2]  285 	ldw	(0x05, sp), y
      0000E3                        286 00102$:
      0000E3 1E 05            [ 2]  287 	ldw	x, (0x05, sp)
      0000E5 F6               [ 1]  288 	ld	a, (x)
      0000E6 6B 07            [ 1]  289 	ld	(0x07, sp), a
      0000E8 27 35            [ 1]  290 	jreq	00104$
                                    291 ;	main.c: 219: uint16_t offset = *p - 32;
      0000EA 7B 07            [ 1]  292 	ld	a, (0x07, sp)
      0000EC 5F               [ 1]  293 	clrw	x
      0000ED 97               [ 1]  294 	ld	xl, a
      0000EE 1D 00 20         [ 2]  295 	subw	x, #0x0020
                                    296 ;	main.c: 220: offset += offset << 2;
      0000F1 1F 01            [ 2]  297 	ldw	(0x01, sp), x
      0000F3 58               [ 2]  298 	sllw	x
      0000F4 58               [ 2]  299 	sllw	x
      0000F5 72 FB 01         [ 2]  300 	addw	x, (0x01, sp)
                                    301 ;	main.c: 221: I2C_write(0x00);
      0000F8 89               [ 2]  302 	pushw	x
      0000F9 4F               [ 1]  303 	clr	a
      0000FA CDr00r00         [ 4]  304 	call	_I2C_write
      0000FD 85               [ 2]  305 	popw	x
                                    306 ;	main.c: 222: for(uint8_t i = 5; i;i--){ I2C_write(OLED_FONT[offset++]); }
      0000FE A6 05            [ 1]  307 	ld	a, #0x05
      000100 6B 07            [ 1]  308 	ld	(0x07, sp), a
      000102                        309 00106$:
      000102 0D 07            [ 1]  310 	tnz	(0x07, sp)
      000104 27 12            [ 1]  311 	jreq	00101$
      000106 90 93            [ 1]  312 	ldw	y, x
      000108 72 A9r00r0E      [ 2]  313 	addw	y, #(_OLED_FONT+0)
      00010C 5C               [ 1]  314 	incw	x
      00010D 90 F6            [ 1]  315 	ld	a, (y)
      00010F 89               [ 2]  316 	pushw	x
      000110 CDr00r00         [ 4]  317 	call	_I2C_write
      000113 85               [ 2]  318 	popw	x
      000114 0A 07            [ 1]  319 	dec	(0x07, sp)
      000116 20 EA            [ 2]  320 	jra	00106$
      000118                        321 00101$:
                                    322 ;	main.c: 223: p++;
      000118 1E 05            [ 2]  323 	ldw	x, (0x05, sp)
      00011A 5C               [ 1]  324 	incw	x
      00011B 1F 05            [ 2]  325 	ldw	(0x05, sp), x
      00011D 20 C4            [ 2]  326 	jra	00102$
      00011F                        327 00104$:
                                    328 ;	main.c: 225: I2C_stop();
      00011F 5B 07            [ 2]  329 	addw	sp, #7
                                    330 ;	main.c: 226: }
      000121 CCr00r00         [ 2]  331 	jp	_I2C_stop
                                    332 ;	main.c: 227: void OLED_cursor(uint8_t xpos, uint8_t ypos)
                                    333 ;	-----------------------------------------
                                    334 ;	 function OLED_cursor
                                    335 ;	-----------------------------------------
      000124                        336 _OLED_cursor:
      000124 88               [ 1]  337 	push	a
      000125 6B 01            [ 1]  338 	ld	(0x01, sp), a
                                    339 ;	main.c: 229: I2C_start();
      000127 CDr00r00         [ 4]  340 	call	_I2C_start
                                    341 ;	main.c: 230: I2C_address(OLED_I2C_ADDR, OLED_CMD_MODE);
      00012A 4B 00            [ 1]  342 	push	#0x00
      00012C A6 78            [ 1]  343 	ld	a, #0x78
      00012E CDr00r00         [ 4]  344 	call	_I2C_address
                                    345 ;	main.c: 231: I2C_write(xpos & 0x0F);
      000131 7B 01            [ 1]  346 	ld	a, (0x01, sp)
      000133 A4 0F            [ 1]  347 	and	a, #0x0f
      000135 CDr00r00         [ 4]  348 	call	_I2C_write
                                    349 ;	main.c: 232: I2C_write(0x10 | (xpos >> 4));
      000138 7B 01            [ 1]  350 	ld	a, (0x01, sp)
      00013A 4E               [ 1]  351 	swap	a
      00013B A4 0F            [ 1]  352 	and	a, #0x0f
      00013D AA 10            [ 1]  353 	or	a, #0x10
      00013F CDr00r00         [ 4]  354 	call	_I2C_write
                                    355 ;	main.c: 233: I2C_write(0xB0 | (ypos & 0x07));
      000142 7B 04            [ 1]  356 	ld	a, (0x04, sp)
      000144 A4 07            [ 1]  357 	and	a, #0x07
      000146 AA B0            [ 1]  358 	or	a, #0xb0
      000148 CDr00r00         [ 4]  359 	call	_I2C_write
                                    360 ;	main.c: 234: I2C_stop();
      00014B 1E 02            [ 2]  361 	ldw	x, (2, sp)
      00014D 1F 03            [ 2]  362 	ldw	(3, sp), x
      00014F 5B 02            [ 2]  363 	addw	sp, #2
      000151 CCr00r00         [ 2]  364 	jp	_I2C_stop
                                    365 ;	main.c: 235: }
      000154 84               [ 1]  366 	pop	a
      000155 85               [ 2]  367 	popw	x
      000156 84               [ 1]  368 	pop	a
      000157 FC               [ 2]  369 	jp	(x)
                                    370 ;	main.c: 236: void OLED_clear(void)
                                    371 ;	-----------------------------------------
                                    372 ;	 function OLED_clear
                                    373 ;	-----------------------------------------
      000158                        374 _OLED_clear:
                                    375 ;	main.c: 238: OLED_cursor(0,0);
      000158 4B 00            [ 1]  376 	push	#0x00
      00015A 4F               [ 1]  377 	clr	a
      00015B CDr01r24         [ 4]  378 	call	_OLED_cursor
                                    379 ;	main.c: 239: I2C_start();
      00015E CDr00r00         [ 4]  380 	call	_I2C_start
                                    381 ;	main.c: 240: I2C_address(OLED_I2C_ADDR, OLED_DAT_MODE);
      000161 4B 40            [ 1]  382 	push	#0x40
      000163 A6 78            [ 1]  383 	ld	a, #0x78
      000165 CDr00r00         [ 4]  384 	call	_I2C_address
                                    385 ;	main.c: 241: for (uint16_t i=0;i<512;i++)
      000168 5F               [ 1]  386 	clrw	x
      000169                        387 00103$:
      000169 90 93            [ 1]  388 	ldw	y, x
      00016B 90 A3 02 00      [ 2]  389 	cpw	y, #0x0200
      00016F 25 03            [ 1]  390 	jrc	00118$
      000171 CCr00r00         [ 2]  391 	jp	_I2C_stop
      000174                        392 00118$:
                                    393 ;	main.c: 243: I2C_write(0x00);
      000174 89               [ 2]  394 	pushw	x
      000175 4F               [ 1]  395 	clr	a
      000176 CDr00r00         [ 4]  396 	call	_I2C_write
      000179 85               [ 2]  397 	popw	x
                                    398 ;	main.c: 241: for (uint16_t i=0;i<512;i++)
      00017A 5C               [ 1]  399 	incw	x
                                    400 ;	main.c: 245: I2C_stop();
                                    401 ;	main.c: 246: }
      00017B 20 EC            [ 2]  402 	jra	00103$
                                    403 	.area CODE
                                    404 	.area CONST
      000000                        405 _OLED_INIT_CMD:
      000000 A8                     406 	.db #0xa8	; 168
      000001 1F                     407 	.db #0x1f	; 31
      000002 D3                     408 	.db #0xd3	; 211
      000003 00                     409 	.db #0x00	; 0
      000004 03                     410 	.db #0x03	; 3
      000005 20                     411 	.db #0x20	; 32
      000006 00                     412 	.db #0x00	; 0
      000007 DA                     413 	.db #0xda	; 218
      000008 12                     414 	.db #0x12	; 18
      000009 8D                     415 	.db #0x8d	; 141
      00000A 10                     416 	.db #0x10	; 16
      00000B AF                     417 	.db #0xaf	; 175
      00000C A1                     418 	.db #0xa1	; 161
      00000D C8                     419 	.db #0xc8	; 200
      00000E                        420 _OLED_FONT:
      00000E 00                     421 	.db #0x00	; 0
      00000F 00                     422 	.db #0x00	; 0
      000010 00                     423 	.db #0x00	; 0
      000011 00                     424 	.db #0x00	; 0
      000012 00                     425 	.db #0x00	; 0
      000013 00                     426 	.db #0x00	; 0
      000014 00                     427 	.db #0x00	; 0
      000015 2F                     428 	.db #0x2f	; 47
      000016 00                     429 	.db #0x00	; 0
      000017 00                     430 	.db #0x00	; 0
      000018 00                     431 	.db #0x00	; 0
      000019 07                     432 	.db #0x07	; 7
      00001A 00                     433 	.db #0x00	; 0
      00001B 07                     434 	.db #0x07	; 7
      00001C 00                     435 	.db #0x00	; 0
      00001D 14                     436 	.db #0x14	; 20
      00001E 7F                     437 	.db #0x7f	; 127
      00001F 14                     438 	.db #0x14	; 20
      000020 7F                     439 	.db #0x7f	; 127
      000021 14                     440 	.db #0x14	; 20
      000022 24                     441 	.db #0x24	; 36
      000023 2A                     442 	.db #0x2a	; 42
      000024 7F                     443 	.db #0x7f	; 127
      000025 2A                     444 	.db #0x2a	; 42
      000026 12                     445 	.db #0x12	; 18
      000027 62                     446 	.db #0x62	; 98	'b'
      000028 64                     447 	.db #0x64	; 100	'd'
      000029 08                     448 	.db #0x08	; 8
      00002A 13                     449 	.db #0x13	; 19
      00002B 23                     450 	.db #0x23	; 35
      00002C 36                     451 	.db #0x36	; 54	'6'
      00002D 49                     452 	.db #0x49	; 73	'I'
      00002E 55                     453 	.db #0x55	; 85	'U'
      00002F 22                     454 	.db #0x22	; 34
      000030 50                     455 	.db #0x50	; 80	'P'
      000031 00                     456 	.db #0x00	; 0
      000032 05                     457 	.db #0x05	; 5
      000033 03                     458 	.db #0x03	; 3
      000034 00                     459 	.db #0x00	; 0
      000035 00                     460 	.db #0x00	; 0
      000036 00                     461 	.db #0x00	; 0
      000037 1C                     462 	.db #0x1c	; 28
      000038 22                     463 	.db #0x22	; 34
      000039 41                     464 	.db #0x41	; 65	'A'
      00003A 00                     465 	.db #0x00	; 0
      00003B 00                     466 	.db #0x00	; 0
      00003C 41                     467 	.db #0x41	; 65	'A'
      00003D 22                     468 	.db #0x22	; 34
      00003E 1C                     469 	.db #0x1c	; 28
      00003F 00                     470 	.db #0x00	; 0
      000040 14                     471 	.db #0x14	; 20
      000041 08                     472 	.db #0x08	; 8
      000042 3E                     473 	.db #0x3e	; 62
      000043 08                     474 	.db #0x08	; 8
      000044 14                     475 	.db #0x14	; 20
      000045 08                     476 	.db #0x08	; 8
      000046 08                     477 	.db #0x08	; 8
      000047 3E                     478 	.db #0x3e	; 62
      000048 08                     479 	.db #0x08	; 8
      000049 08                     480 	.db #0x08	; 8
      00004A 00                     481 	.db #0x00	; 0
      00004B 00                     482 	.db #0x00	; 0
      00004C A0                     483 	.db #0xa0	; 160
      00004D 60                     484 	.db #0x60	; 96
      00004E 00                     485 	.db #0x00	; 0
      00004F 08                     486 	.db #0x08	; 8
      000050 08                     487 	.db #0x08	; 8
      000051 08                     488 	.db #0x08	; 8
      000052 08                     489 	.db #0x08	; 8
      000053 08                     490 	.db #0x08	; 8
      000054 00                     491 	.db #0x00	; 0
      000055 60                     492 	.db #0x60	; 96
      000056 60                     493 	.db #0x60	; 96
      000057 00                     494 	.db #0x00	; 0
      000058 00                     495 	.db #0x00	; 0
      000059 20                     496 	.db #0x20	; 32
      00005A 10                     497 	.db #0x10	; 16
      00005B 08                     498 	.db #0x08	; 8
      00005C 04                     499 	.db #0x04	; 4
      00005D 02                     500 	.db #0x02	; 2
      00005E 3E                     501 	.db #0x3e	; 62
      00005F 51                     502 	.db #0x51	; 81	'Q'
      000060 49                     503 	.db #0x49	; 73	'I'
      000061 45                     504 	.db #0x45	; 69	'E'
      000062 3E                     505 	.db #0x3e	; 62
      000063 00                     506 	.db #0x00	; 0
      000064 42                     507 	.db #0x42	; 66	'B'
      000065 7F                     508 	.db #0x7f	; 127
      000066 40                     509 	.db #0x40	; 64
      000067 00                     510 	.db #0x00	; 0
      000068 42                     511 	.db #0x42	; 66	'B'
      000069 61                     512 	.db #0x61	; 97	'a'
      00006A 51                     513 	.db #0x51	; 81	'Q'
      00006B 49                     514 	.db #0x49	; 73	'I'
      00006C 46                     515 	.db #0x46	; 70	'F'
      00006D 21                     516 	.db #0x21	; 33
      00006E 41                     517 	.db #0x41	; 65	'A'
      00006F 45                     518 	.db #0x45	; 69	'E'
      000070 4B                     519 	.db #0x4b	; 75	'K'
      000071 31                     520 	.db #0x31	; 49	'1'
      000072 18                     521 	.db #0x18	; 24
      000073 14                     522 	.db #0x14	; 20
      000074 12                     523 	.db #0x12	; 18
      000075 7F                     524 	.db #0x7f	; 127
      000076 10                     525 	.db #0x10	; 16
      000077 27                     526 	.db #0x27	; 39
      000078 45                     527 	.db #0x45	; 69	'E'
      000079 45                     528 	.db #0x45	; 69	'E'
      00007A 45                     529 	.db #0x45	; 69	'E'
      00007B 39                     530 	.db #0x39	; 57	'9'
      00007C 3C                     531 	.db #0x3c	; 60
      00007D 4A                     532 	.db #0x4a	; 74	'J'
      00007E 49                     533 	.db #0x49	; 73	'I'
      00007F 49                     534 	.db #0x49	; 73	'I'
      000080 30                     535 	.db #0x30	; 48	'0'
      000081 01                     536 	.db #0x01	; 1
      000082 71                     537 	.db #0x71	; 113	'q'
      000083 09                     538 	.db #0x09	; 9
      000084 05                     539 	.db #0x05	; 5
      000085 03                     540 	.db #0x03	; 3
      000086 36                     541 	.db #0x36	; 54	'6'
      000087 49                     542 	.db #0x49	; 73	'I'
      000088 49                     543 	.db #0x49	; 73	'I'
      000089 49                     544 	.db #0x49	; 73	'I'
      00008A 36                     545 	.db #0x36	; 54	'6'
      00008B 06                     546 	.db #0x06	; 6
      00008C 49                     547 	.db #0x49	; 73	'I'
      00008D 49                     548 	.db #0x49	; 73	'I'
      00008E 29                     549 	.db #0x29	; 41
      00008F 1E                     550 	.db #0x1e	; 30
      000090 00                     551 	.db #0x00	; 0
      000091 36                     552 	.db #0x36	; 54	'6'
      000092 36                     553 	.db #0x36	; 54	'6'
      000093 00                     554 	.db #0x00	; 0
      000094 00                     555 	.db #0x00	; 0
      000095 00                     556 	.db #0x00	; 0
      000096 56                     557 	.db #0x56	; 86	'V'
      000097 36                     558 	.db #0x36	; 54	'6'
      000098 00                     559 	.db #0x00	; 0
      000099 00                     560 	.db #0x00	; 0
      00009A 08                     561 	.db #0x08	; 8
      00009B 14                     562 	.db #0x14	; 20
      00009C 22                     563 	.db #0x22	; 34
      00009D 41                     564 	.db #0x41	; 65	'A'
      00009E 00                     565 	.db #0x00	; 0
      00009F 14                     566 	.db #0x14	; 20
      0000A0 14                     567 	.db #0x14	; 20
      0000A1 14                     568 	.db #0x14	; 20
      0000A2 14                     569 	.db #0x14	; 20
      0000A3 14                     570 	.db #0x14	; 20
      0000A4 00                     571 	.db #0x00	; 0
      0000A5 41                     572 	.db #0x41	; 65	'A'
      0000A6 22                     573 	.db #0x22	; 34
      0000A7 14                     574 	.db #0x14	; 20
      0000A8 08                     575 	.db #0x08	; 8
      0000A9 02                     576 	.db #0x02	; 2
      0000AA 01                     577 	.db #0x01	; 1
      0000AB 51                     578 	.db #0x51	; 81	'Q'
      0000AC 09                     579 	.db #0x09	; 9
      0000AD 06                     580 	.db #0x06	; 6
      0000AE 32                     581 	.db #0x32	; 50	'2'
      0000AF 49                     582 	.db #0x49	; 73	'I'
      0000B0 59                     583 	.db #0x59	; 89	'Y'
      0000B1 51                     584 	.db #0x51	; 81	'Q'
      0000B2 3E                     585 	.db #0x3e	; 62
      0000B3 7C                     586 	.db #0x7c	; 124
      0000B4 12                     587 	.db #0x12	; 18
      0000B5 11                     588 	.db #0x11	; 17
      0000B6 12                     589 	.db #0x12	; 18
      0000B7 7C                     590 	.db #0x7c	; 124
      0000B8 7F                     591 	.db #0x7f	; 127
      0000B9 49                     592 	.db #0x49	; 73	'I'
      0000BA 49                     593 	.db #0x49	; 73	'I'
      0000BB 49                     594 	.db #0x49	; 73	'I'
      0000BC 36                     595 	.db #0x36	; 54	'6'
      0000BD 3E                     596 	.db #0x3e	; 62
      0000BE 41                     597 	.db #0x41	; 65	'A'
      0000BF 41                     598 	.db #0x41	; 65	'A'
      0000C0 41                     599 	.db #0x41	; 65	'A'
      0000C1 22                     600 	.db #0x22	; 34
      0000C2 7F                     601 	.db #0x7f	; 127
      0000C3 41                     602 	.db #0x41	; 65	'A'
      0000C4 41                     603 	.db #0x41	; 65	'A'
      0000C5 22                     604 	.db #0x22	; 34
      0000C6 1C                     605 	.db #0x1c	; 28
      0000C7 7F                     606 	.db #0x7f	; 127
      0000C8 49                     607 	.db #0x49	; 73	'I'
      0000C9 49                     608 	.db #0x49	; 73	'I'
      0000CA 49                     609 	.db #0x49	; 73	'I'
      0000CB 41                     610 	.db #0x41	; 65	'A'
      0000CC 7F                     611 	.db #0x7f	; 127
      0000CD 09                     612 	.db #0x09	; 9
      0000CE 09                     613 	.db #0x09	; 9
      0000CF 09                     614 	.db #0x09	; 9
      0000D0 01                     615 	.db #0x01	; 1
      0000D1 3E                     616 	.db #0x3e	; 62
      0000D2 41                     617 	.db #0x41	; 65	'A'
      0000D3 49                     618 	.db #0x49	; 73	'I'
      0000D4 49                     619 	.db #0x49	; 73	'I'
      0000D5 7A                     620 	.db #0x7a	; 122	'z'
      0000D6 7F                     621 	.db #0x7f	; 127
      0000D7 08                     622 	.db #0x08	; 8
      0000D8 08                     623 	.db #0x08	; 8
      0000D9 08                     624 	.db #0x08	; 8
      0000DA 7F                     625 	.db #0x7f	; 127
      0000DB 00                     626 	.db #0x00	; 0
      0000DC 41                     627 	.db #0x41	; 65	'A'
      0000DD 7F                     628 	.db #0x7f	; 127
      0000DE 41                     629 	.db #0x41	; 65	'A'
      0000DF 00                     630 	.db #0x00	; 0
      0000E0 20                     631 	.db #0x20	; 32
      0000E1 40                     632 	.db #0x40	; 64
      0000E2 41                     633 	.db #0x41	; 65	'A'
      0000E3 3F                     634 	.db #0x3f	; 63
      0000E4 01                     635 	.db #0x01	; 1
      0000E5 7F                     636 	.db #0x7f	; 127
      0000E6 08                     637 	.db #0x08	; 8
      0000E7 14                     638 	.db #0x14	; 20
      0000E8 22                     639 	.db #0x22	; 34
      0000E9 41                     640 	.db #0x41	; 65	'A'
      0000EA 7F                     641 	.db #0x7f	; 127
      0000EB 40                     642 	.db #0x40	; 64
      0000EC 40                     643 	.db #0x40	; 64
      0000ED 40                     644 	.db #0x40	; 64
      0000EE 40                     645 	.db #0x40	; 64
      0000EF 7F                     646 	.db #0x7f	; 127
      0000F0 02                     647 	.db #0x02	; 2
      0000F1 0C                     648 	.db #0x0c	; 12
      0000F2 02                     649 	.db #0x02	; 2
      0000F3 7F                     650 	.db #0x7f	; 127
      0000F4 7F                     651 	.db #0x7f	; 127
      0000F5 04                     652 	.db #0x04	; 4
      0000F6 08                     653 	.db #0x08	; 8
      0000F7 10                     654 	.db #0x10	; 16
      0000F8 7F                     655 	.db #0x7f	; 127
      0000F9 3E                     656 	.db #0x3e	; 62
      0000FA 41                     657 	.db #0x41	; 65	'A'
      0000FB 41                     658 	.db #0x41	; 65	'A'
      0000FC 41                     659 	.db #0x41	; 65	'A'
      0000FD 3E                     660 	.db #0x3e	; 62
      0000FE 7F                     661 	.db #0x7f	; 127
      0000FF 09                     662 	.db #0x09	; 9
      000100 09                     663 	.db #0x09	; 9
      000101 09                     664 	.db #0x09	; 9
      000102 06                     665 	.db #0x06	; 6
      000103 3E                     666 	.db #0x3e	; 62
      000104 41                     667 	.db #0x41	; 65	'A'
      000105 51                     668 	.db #0x51	; 81	'Q'
      000106 21                     669 	.db #0x21	; 33
      000107 5E                     670 	.db #0x5e	; 94
      000108 7F                     671 	.db #0x7f	; 127
      000109 09                     672 	.db #0x09	; 9
      00010A 19                     673 	.db #0x19	; 25
      00010B 29                     674 	.db #0x29	; 41
      00010C 46                     675 	.db #0x46	; 70	'F'
      00010D 46                     676 	.db #0x46	; 70	'F'
      00010E 49                     677 	.db #0x49	; 73	'I'
      00010F 49                     678 	.db #0x49	; 73	'I'
      000110 49                     679 	.db #0x49	; 73	'I'
      000111 31                     680 	.db #0x31	; 49	'1'
      000112 01                     681 	.db #0x01	; 1
      000113 01                     682 	.db #0x01	; 1
      000114 7F                     683 	.db #0x7f	; 127
      000115 01                     684 	.db #0x01	; 1
      000116 01                     685 	.db #0x01	; 1
      000117 3F                     686 	.db #0x3f	; 63
      000118 40                     687 	.db #0x40	; 64
      000119 40                     688 	.db #0x40	; 64
      00011A 40                     689 	.db #0x40	; 64
      00011B 3F                     690 	.db #0x3f	; 63
      00011C 1F                     691 	.db #0x1f	; 31
      00011D 20                     692 	.db #0x20	; 32
      00011E 40                     693 	.db #0x40	; 64
      00011F 20                     694 	.db #0x20	; 32
      000120 1F                     695 	.db #0x1f	; 31
      000121 3F                     696 	.db #0x3f	; 63
      000122 40                     697 	.db #0x40	; 64
      000123 38                     698 	.db #0x38	; 56	'8'
      000124 40                     699 	.db #0x40	; 64
      000125 3F                     700 	.db #0x3f	; 63
      000126 63                     701 	.db #0x63	; 99	'c'
      000127 14                     702 	.db #0x14	; 20
      000128 08                     703 	.db #0x08	; 8
      000129 14                     704 	.db #0x14	; 20
      00012A 63                     705 	.db #0x63	; 99	'c'
      00012B 07                     706 	.db #0x07	; 7
      00012C 08                     707 	.db #0x08	; 8
      00012D 70                     708 	.db #0x70	; 112	'p'
      00012E 08                     709 	.db #0x08	; 8
      00012F 07                     710 	.db #0x07	; 7
      000130 61                     711 	.db #0x61	; 97	'a'
      000131 51                     712 	.db #0x51	; 81	'Q'
      000132 49                     713 	.db #0x49	; 73	'I'
      000133 45                     714 	.db #0x45	; 69	'E'
      000134 43                     715 	.db #0x43	; 67	'C'
      000135 00                     716 	.db #0x00	; 0
      000136 7F                     717 	.db #0x7f	; 127
      000137 41                     718 	.db #0x41	; 65	'A'
      000138 41                     719 	.db #0x41	; 65	'A'
      000139 00                     720 	.db #0x00	; 0
      00013A 02                     721 	.db #0x02	; 2
      00013B 04                     722 	.db #0x04	; 4
      00013C 08                     723 	.db #0x08	; 8
      00013D 10                     724 	.db #0x10	; 16
      00013E 20                     725 	.db #0x20	; 32
      00013F 00                     726 	.db #0x00	; 0
      000140 41                     727 	.db #0x41	; 65	'A'
      000141 41                     728 	.db #0x41	; 65	'A'
      000142 7F                     729 	.db #0x7f	; 127
      000143 00                     730 	.db #0x00	; 0
      000144 04                     731 	.db #0x04	; 4
      000145 02                     732 	.db #0x02	; 2
      000146 01                     733 	.db #0x01	; 1
      000147 02                     734 	.db #0x02	; 2
      000148 04                     735 	.db #0x04	; 4
      000149 40                     736 	.db #0x40	; 64
      00014A 40                     737 	.db #0x40	; 64
      00014B 40                     738 	.db #0x40	; 64
      00014C 40                     739 	.db #0x40	; 64
      00014D 40                     740 	.db #0x40	; 64
                                    741 	.area INITIALIZER
      000000                        742 __xinit__dem:
      000000 00                     743 	.db #0x00	; 0
      000001                        744 __xinit__nut:
      000001 00                     745 	.db #0x00	; 0
      000002                        746 __xinit__i:
      000002 00 00                  747 	.dw #0x0000
      000004                        748 __xinit__ketqua:
      000004 00                     749 	.db #0x00	; 0
      000005                        750 __xinit__a:
      000005 43 48 55 4E 47         751 	.ascii "CHUNG"
      00000A 00                     752 	.db 0x00
                                    753 	.area CABS (ABS)
