                                      1 ;--------------------------------------------------------
                                      2 ; File Created by SDCC : free open source ISO C Compiler 
                                      3 ; Version 4.3.0 #14184 (MINGW64)
                                      4 ;--------------------------------------------------------
                                      5 	.module mylibrary
                                      6 	.optsdcc -mstm8
                                      7 	
                                      8 ;--------------------------------------------------------
                                      9 ; Public variables in this module
                                     10 ;--------------------------------------------------------
                                     11 	.globl _UART1_ClearFlag
                                     12 	.globl _UART1_GetFlagStatus
                                     13 	.globl _UART1_SendData8
                                     14 	.globl _UART1_Cmd
                                     15 	.globl _UART1_Init
                                     16 	.globl _TIM4_ClearFlag
                                     17 	.globl _TIM4_GetFlagStatus
                                     18 	.globl _TIM4_SetCounter
                                     19 	.globl _TIM4_Cmd
                                     20 	.globl _TIM4_TimeBaseInit
                                     21 	.globl _I2C_GetFlagStatus
                                     22 	.globl _I2C_CheckEvent
                                     23 	.globl _I2C_SendData
                                     24 	.globl _I2C_Send7bitAddress
                                     25 	.globl _I2C_GenerateSTOP
                                     26 	.globl _I2C_GenerateSTART
                                     27 	.globl _I2C_Cmd
                                     28 	.globl _I2C_Init
                                     29 	.globl _I2C_DeInit
                                     30 	.globl _CLK_GetClockFreq
                                     31 	.globl _CLK_PeripheralClockConfig
                                     32 	.globl _delay_msSetup
                                     33 	.globl _delay_ms
                                     34 	.globl _UART1_Setup
                                     35 	.globl _UART1_number
                                     36 	.globl _UART1_String
                                     37 	.globl _I2C_init
                                     38 	.globl _I2C_start
                                     39 	.globl _I2C_address
                                     40 	.globl _I2C_write
                                     41 	.globl _I2C_stop
                                     42 ;--------------------------------------------------------
                                     43 ; ram data
                                     44 ;--------------------------------------------------------
                                     45 	.area DATA
                                     46 ;--------------------------------------------------------
                                     47 ; ram data
                                     48 ;--------------------------------------------------------
                                     49 	.area INITIALIZED
                                     50 ;--------------------------------------------------------
                                     51 ; absolute external ram data
                                     52 ;--------------------------------------------------------
                                     53 	.area DABS (ABS)
                                     54 
                                     55 ; default segment ordering for linker
                                     56 	.area HOME
                                     57 	.area GSINIT
                                     58 	.area GSFINAL
                                     59 	.area CONST
                                     60 	.area INITIALIZER
                                     61 	.area CODE
                                     62 
                                     63 ;--------------------------------------------------------
                                     64 ; global & static initialisations
                                     65 ;--------------------------------------------------------
                                     66 	.area HOME
                                     67 	.area GSINIT
                                     68 	.area GSFINAL
                                     69 	.area GSINIT
                                     70 ;--------------------------------------------------------
                                     71 ; Home
                                     72 ;--------------------------------------------------------
                                     73 	.area HOME
                                     74 	.area HOME
                                     75 ;--------------------------------------------------------
                                     76 ; code
                                     77 ;--------------------------------------------------------
                                     78 	.area CODE
                                     79 ;	mylibrary.c: 4: void delay_msSetup(void)
                                     80 ;	-----------------------------------------
                                     81 ;	 function delay_msSetup
                                     82 ;	-----------------------------------------
      000000                         83 _delay_msSetup:
                                     84 ;	mylibrary.c: 6: TIM4_TimeBaseInit(TIM4_PRESCALER_128, 125 - 1);
      000000 4B 7C            [ 1]   85 	push	#0x7c
      000002 A6 07            [ 1]   86 	ld	a, #0x07
      000004 CDr00r00         [ 4]   87 	call	_TIM4_TimeBaseInit
                                     88 ;	mylibrary.c: 7: TIM4_Cmd(ENABLE);
      000007 A6 01            [ 1]   89 	ld	a, #0x01
                                     90 ;	mylibrary.c: 8: }
      000009 CCr00r00         [ 2]   91 	jp	_TIM4_Cmd
                                     92 ;	mylibrary.c: 9: void delay_ms(uint16_t u16Delay)
                                     93 ;	-----------------------------------------
                                     94 ;	 function delay_ms
                                     95 ;	-----------------------------------------
      00000C                         96 _delay_ms:
      00000C 52 02            [ 2]   97 	sub	sp, #2
                                     98 ;	mylibrary.c: 11: while (u16Delay) {
      00000E 1F 01            [ 2]   99 	ldw	(0x01, sp), x
      000010                        100 00104$:
      000010 1E 01            [ 2]  101 	ldw	x, (0x01, sp)
      000012 27 18            [ 1]  102 	jreq	00107$
                                    103 ;	mylibrary.c: 12: TIM4_SetCounter(0);
      000014 4F               [ 1]  104 	clr	a
      000015 CDr00r00         [ 4]  105 	call	_TIM4_SetCounter
                                    106 ;	mylibrary.c: 13: TIM4_ClearFlag(TIM4_FLAG_UPDATE);
      000018 A6 01            [ 1]  107 	ld	a, #0x01
      00001A CDr00r00         [ 4]  108 	call	_TIM4_ClearFlag
                                    109 ;	mylibrary.c: 14: while (TIM4_GetFlagStatus(TIM4_FLAG_UPDATE) == RESET) {}
      00001D                        110 00101$:
      00001D A6 01            [ 1]  111 	ld	a, #0x01
      00001F CDr00r00         [ 4]  112 	call	_TIM4_GetFlagStatus
      000022 4D               [ 1]  113 	tnz	a
      000023 27 F8            [ 1]  114 	jreq	00101$
                                    115 ;	mylibrary.c: 15: --u16Delay;
      000025 1E 01            [ 2]  116 	ldw	x, (0x01, sp)
      000027 5A               [ 2]  117 	decw	x
      000028 1F 01            [ 2]  118 	ldw	(0x01, sp), x
      00002A 20 E4            [ 2]  119 	jra	00104$
      00002C                        120 00107$:
                                    121 ;	mylibrary.c: 17: }
      00002C 5B 02            [ 2]  122 	addw	sp, #2
      00002E 81               [ 4]  123 	ret
                                    124 ;	mylibrary.c: 22: void UART1_Setup(void)
                                    125 ;	-----------------------------------------
                                    126 ;	 function UART1_Setup
                                    127 ;	-----------------------------------------
      00002F                        128 _UART1_Setup:
                                    129 ;	mylibrary.c: 24: UART1_Init(9600, UART1_WORDLENGTH_8D, UART1_STOPBITS_1, 
      00002F 4B 0C            [ 1]  130 	push	#0x0c
      000031 4B 80            [ 1]  131 	push	#0x80
      000033 4B 00            [ 1]  132 	push	#0x00
      000035 4B 00            [ 1]  133 	push	#0x00
      000037 4B 00            [ 1]  134 	push	#0x00
      000039 4B 80            [ 1]  135 	push	#0x80
      00003B 4B 25            [ 1]  136 	push	#0x25
      00003D 5F               [ 1]  137 	clrw	x
      00003E 89               [ 2]  138 	pushw	x
      00003F CDr00r00         [ 4]  139 	call	_UART1_Init
                                    140 ;	mylibrary.c: 26: UART1_Cmd(ENABLE);
      000042 A6 01            [ 1]  141 	ld	a, #0x01
                                    142 ;	mylibrary.c: 27: }
      000044 CCr00r00         [ 2]  143 	jp	_UART1_Cmd
                                    144 ;	mylibrary.c: 28: void UART1_number(uint8_t data)
                                    145 ;	-----------------------------------------
                                    146 ;	 function UART1_number
                                    147 ;	-----------------------------------------
      000047                        148 _UART1_number:
                                    149 ;	mylibrary.c: 30: UART1_SendData8(48+data);
      000047 AB 30            [ 1]  150 	add	a, #0x30
      000049 CDr00r00         [ 4]  151 	call	_UART1_SendData8
                                    152 ;	mylibrary.c: 31: while(UART1_GetFlagStatus(UART1_FLAG_TXE)==0){}
      00004C                        153 00101$:
      00004C AE 00 80         [ 2]  154 	ldw	x, #0x0080
      00004F CDr00r00         [ 4]  155 	call	_UART1_GetFlagStatus
      000052 4D               [ 1]  156 	tnz	a
      000053 27 F7            [ 1]  157 	jreq	00101$
                                    158 ;	mylibrary.c: 32: UART1_ClearFlag(UART1_FLAG_TXE);
      000055 AE 00 80         [ 2]  159 	ldw	x, #0x0080
                                    160 ;	mylibrary.c: 33: }
      000058 CCr00r00         [ 2]  161 	jp	_UART1_ClearFlag
                                    162 ;	mylibrary.c: 34: void UART1_String(const char *cy)
                                    163 ;	-----------------------------------------
                                    164 ;	 function UART1_String
                                    165 ;	-----------------------------------------
      00005B                        166 _UART1_String:
      00005B 52 02            [ 2]  167 	sub	sp, #2
                                    168 ;	mylibrary.c: 36: while(*cy)
      00005D 1F 01            [ 2]  169 	ldw	(0x01, sp), x
      00005F                        170 00104$:
      00005F 1E 01            [ 2]  171 	ldw	x, (0x01, sp)
      000061 F6               [ 1]  172 	ld	a, (x)
      000062 27 19            [ 1]  173 	jreq	00107$
                                    174 ;	mylibrary.c: 38: UART1_SendData8(*cy);
      000064 CDr00r00         [ 4]  175 	call	_UART1_SendData8
                                    176 ;	mylibrary.c: 39: while(UART1_GetFlagStatus(UART1_FLAG_TXE)==0){}
      000067                        177 00101$:
      000067 AE 00 80         [ 2]  178 	ldw	x, #0x0080
      00006A CDr00r00         [ 4]  179 	call	_UART1_GetFlagStatus
      00006D 4D               [ 1]  180 	tnz	a
      00006E 27 F7            [ 1]  181 	jreq	00101$
                                    182 ;	mylibrary.c: 40: UART1_ClearFlag(UART1_FLAG_TXE);
      000070 AE 00 80         [ 2]  183 	ldw	x, #0x0080
      000073 CDr00r00         [ 4]  184 	call	_UART1_ClearFlag
                                    185 ;	mylibrary.c: 41: cy++;
      000076 1E 01            [ 2]  186 	ldw	x, (0x01, sp)
      000078 5C               [ 1]  187 	incw	x
      000079 1F 01            [ 2]  188 	ldw	(0x01, sp), x
      00007B 20 E2            [ 2]  189 	jra	00104$
      00007D                        190 00107$:
                                    191 ;	mylibrary.c: 43: }
      00007D 5B 02            [ 2]  192 	addw	sp, #2
      00007F 81               [ 4]  193 	ret
                                    194 ;	mylibrary.c: 48: void I2C_init(uint32_t I2C_CLOCK,uint8_t I2C_ADDR)
                                    195 ;	-----------------------------------------
                                    196 ;	 function I2C_init
                                    197 ;	-----------------------------------------
      000080                        198 _I2C_init:
      000080 88               [ 1]  199 	push	a
                                    200 ;	mylibrary.c: 51: Input_Clock = CLK_GetClockFreq()/1000000;
      000081 CDr00r00         [ 4]  201 	call	_CLK_GetClockFreq
      000084 4B 40            [ 1]  202 	push	#0x40
      000086 4B 42            [ 1]  203 	push	#0x42
      000088 4B 0F            [ 1]  204 	push	#0x0f
      00008A 4B 00            [ 1]  205 	push	#0x00
      00008C 89               [ 2]  206 	pushw	x
      00008D 90 89            [ 2]  207 	pushw	y
      00008F CDr00r00         [ 4]  208 	call	__divulong
      000092 5B 08            [ 2]  209 	addw	sp, #8
      000094 9F               [ 1]  210 	ld	a, xl
      000095 6B 01            [ 1]  211 	ld	(0x01, sp), a
                                    212 ;	mylibrary.c: 52: I2C_DeInit();
      000097 CDr00r00         [ 4]  213 	call	_I2C_DeInit
                                    214 ;	mylibrary.c: 53: CLK_PeripheralClockConfig(CLK_PERIPHERAL_I2C, ENABLE);
      00009A 4B 01            [ 1]  215 	push	#0x01
      00009C 4F               [ 1]  216 	clr	a
      00009D CDr00r00         [ 4]  217 	call	_CLK_PeripheralClockConfig
                                    218 ;	mylibrary.c: 54: I2C_Cmd(ENABLE);
      0000A0 A6 01            [ 1]  219 	ld	a, #0x01
      0000A2 CDr00r00         [ 4]  220 	call	_I2C_Cmd
                                    221 ;	mylibrary.c: 55: I2C_Init(I2C_CLOCK, I2C_ADDR, I2C_DUTYCYCLE_2, I2C_ACK_CURR, I2C_ADDMODE_7BIT, Input_Clock);
      0000A5 5F               [ 1]  222 	clrw	x
      0000A6 7B 08            [ 1]  223 	ld	a, (0x08, sp)
      0000A8 97               [ 1]  224 	ld	xl, a
      0000A9 7B 01            [ 1]  225 	ld	a, (0x01, sp)
      0000AB 88               [ 1]  226 	push	a
      0000AC 4B 00            [ 1]  227 	push	#0x00
      0000AE 4B 01            [ 1]  228 	push	#0x01
      0000B0 4B 00            [ 1]  229 	push	#0x00
      0000B2 89               [ 2]  230 	pushw	x
      0000B3 1E 0C            [ 2]  231 	ldw	x, (0x0c, sp)
      0000B5 89               [ 2]  232 	pushw	x
      0000B6 1E 0C            [ 2]  233 	ldw	x, (0x0c, sp)
      0000B8 89               [ 2]  234 	pushw	x
      0000B9 CDr00r00         [ 4]  235 	call	_I2C_Init
                                    236 ;	mylibrary.c: 56: }
      0000BC 1E 02            [ 2]  237 	ldw	x, (2, sp)
      0000BE 5B 08            [ 2]  238 	addw	sp, #8
      0000C0 FC               [ 2]  239 	jp	(x)
                                    240 ;	mylibrary.c: 57: void I2C_start(void)
                                    241 ;	-----------------------------------------
                                    242 ;	 function I2C_start
                                    243 ;	-----------------------------------------
      0000C1                        244 _I2C_start:
                                    245 ;	mylibrary.c: 60: while(I2C_GetFlagStatus( I2C_FLAG_BUSBUSY)==SET);
      0000C1                        246 00101$:
      0000C1 AE 03 02         [ 2]  247 	ldw	x, #0x0302
      0000C4 CDr00r00         [ 4]  248 	call	_I2C_GetFlagStatus
      0000C7 4D               [ 1]  249 	tnz	a
      0000C8 26 F7            [ 1]  250 	jrne	00101$
                                    251 ;	mylibrary.c: 61: I2C_GenerateSTART(ENABLE);
      0000CA A6 01            [ 1]  252 	ld	a, #0x01
      0000CC CDr00r00         [ 4]  253 	call	_I2C_GenerateSTART
                                    254 ;	mylibrary.c: 62: while(!I2C_CheckEvent( I2C_EVENT_MASTER_MODE_SELECT));
      0000CF                        255 00104$:
      0000CF AE 03 01         [ 2]  256 	ldw	x, #0x0301
      0000D2 CDr00r00         [ 4]  257 	call	_I2C_CheckEvent
      0000D5 4D               [ 1]  258 	tnz	a
      0000D6 27 F7            [ 1]  259 	jreq	00104$
                                    260 ;	mylibrary.c: 63: }
      0000D8 81               [ 4]  261 	ret
                                    262 ;	mylibrary.c: 64: void I2C_address(uint8_t I2C_ADDR, uint8_t mode)
                                    263 ;	-----------------------------------------
                                    264 ;	 function I2C_address
                                    265 ;	-----------------------------------------
      0000D9                        266 _I2C_address:
                                    267 ;	mylibrary.c: 67: I2C_Send7bitAddress((uint8_t)I2C_ADDR,I2C_DIRECTION_TX);
      0000D9 4B 00            [ 1]  268 	push	#0x00
      0000DB CDr00r00         [ 4]  269 	call	_I2C_Send7bitAddress
                                    270 ;	mylibrary.c: 70: while(!I2C_CheckEvent( I2C_EVENT_MASTER_TRANSMITTER_MODE_SELECTED));
      0000DE                        271 00101$:
      0000DE AE 07 82         [ 2]  272 	ldw	x, #0x0782
      0000E1 CDr00r00         [ 4]  273 	call	_I2C_CheckEvent
      0000E4 4D               [ 1]  274 	tnz	a
      0000E5 27 F7            [ 1]  275 	jreq	00101$
                                    276 ;	mylibrary.c: 73: I2C_SendData(mode);
      0000E7 7B 03            [ 1]  277 	ld	a, (0x03, sp)
      0000E9 CDr00r00         [ 4]  278 	call	_I2C_SendData
                                    279 ;	mylibrary.c: 76: while(!I2C_CheckEvent( I2C_EVENT_MASTER_BYTE_TRANSMITTED));
      0000EC                        280 00104$:
      0000EC AE 07 84         [ 2]  281 	ldw	x, #0x0784
      0000EF CDr00r00         [ 4]  282 	call	_I2C_CheckEvent
      0000F2 4D               [ 1]  283 	tnz	a
      0000F3 27 F7            [ 1]  284 	jreq	00104$
                                    285 ;	mylibrary.c: 77: }
      0000F5 85               [ 2]  286 	popw	x
      0000F6 84               [ 1]  287 	pop	a
      0000F7 FC               [ 2]  288 	jp	(x)
                                    289 ;	mylibrary.c: 78: void I2C_write(uint8_t data)
                                    290 ;	-----------------------------------------
                                    291 ;	 function I2C_write
                                    292 ;	-----------------------------------------
      0000F8                        293 _I2C_write:
                                    294 ;	mylibrary.c: 81: I2C_SendData(data);
      0000F8 CDr00r00         [ 4]  295 	call	_I2C_SendData
                                    296 ;	mylibrary.c: 84: while(!I2C_GetFlagStatus( I2C_FLAG_TRANSFERFINISHED));
      0000FB                        297 00101$:
      0000FB AE 01 04         [ 2]  298 	ldw	x, #0x0104
      0000FE CDr00r00         [ 4]  299 	call	_I2C_GetFlagStatus
      000101 4D               [ 1]  300 	tnz	a
      000102 27 F7            [ 1]  301 	jreq	00101$
                                    302 ;	mylibrary.c: 85: }
      000104 81               [ 4]  303 	ret
                                    304 ;	mylibrary.c: 86: void I2C_stop(void)
                                    305 ;	-----------------------------------------
                                    306 ;	 function I2C_stop
                                    307 ;	-----------------------------------------
      000105                        308 _I2C_stop:
                                    309 ;	mylibrary.c: 89: I2C_GenerateSTOP(ENABLE);
      000105 A6 01            [ 1]  310 	ld	a, #0x01
      000107 CDr00r00         [ 4]  311 	call	_I2C_GenerateSTOP
                                    312 ;	mylibrary.c: 91: I2C->SR1;       I2C->SR3;
      00010A C6 52 17         [ 1]  313 	ld	a, 0x5217
      00010D C6 52 19         [ 1]  314 	ld	a, 0x5219
                                    315 ;	mylibrary.c: 92: }
      000110 81               [ 4]  316 	ret
                                    317 	.area CODE
                                    318 	.area CONST
                                    319 	.area INITIALIZER
                                    320 	.area CABS (ABS)
